
Controller.elf:     file format elf32-avr

Sections:
Idx Name          Size      VMA       LMA       File off  Algn
  0 .data         000001d4  00800100  000038ca  0000395e  2**0
                  CONTENTS, ALLOC, LOAD, DATA
  1 .text         000038ca  00000000  00000000  00000094  2**1
                  CONTENTS, ALLOC, LOAD, READONLY, CODE
  2 .bss          0000012d  008002d4  008002d4  00003b32  2**0
                  ALLOC
  3 .stab         00000024  00000000  00000000  00003b34  2**2
                  CONTENTS, READONLY, DEBUGGING
  4 .stabstr      00000023  00000000  00000000  00003b58  2**0
                  CONTENTS, READONLY, DEBUGGING
  5 .comment      0000005c  00000000  00000000  00003b7b  2**0
                  CONTENTS, READONLY
  6 .note.gnu.avr.deviceinfo 00000040  00000000  00000000  00003bd8  2**2
                  CONTENTS, READONLY
  7 .debug_aranges 00000680  00000000  00000000  00003c18  2**3
                  CONTENTS, READONLY, DEBUGGING
  8 .debug_info   0000d6c3  00000000  00000000  00004298  2**0
                  CONTENTS, READONLY, DEBUGGING
  9 .debug_abbrev 00004562  00000000  00000000  0001195b  2**0
                  CONTENTS, READONLY, DEBUGGING
 10 .debug_line   00003b5c  00000000  00000000  00015ebd  2**0
                  CONTENTS, READONLY, DEBUGGING
 11 .debug_frame  000013dc  00000000  00000000  00019a1c  2**2
                  CONTENTS, READONLY, DEBUGGING
 12 .debug_str    000035de  00000000  00000000  0001adf8  2**0
                  CONTENTS, READONLY, DEBUGGING
 13 .debug_loc    000063e6  00000000  00000000  0001e3d6  2**0
                  CONTENTS, READONLY, DEBUGGING
 14 .debug_ranges 00000700  00000000  00000000  000247bc  2**0
                  CONTENTS, READONLY, DEBUGGING

Disassembly of section .text:

00000000 <__vectors>:
       0:	0c 94 9e 01 	jmp	0x33c	; 0x33c <__dtors_end>
       4:	0c 94 c6 01 	jmp	0x38c	; 0x38c <__bad_interrupt>
       8:	0c 94 c6 01 	jmp	0x38c	; 0x38c <__bad_interrupt>
       c:	0c 94 c6 01 	jmp	0x38c	; 0x38c <__bad_interrupt>
      10:	0c 94 c6 01 	jmp	0x38c	; 0x38c <__bad_interrupt>
      14:	0c 94 c6 01 	jmp	0x38c	; 0x38c <__bad_interrupt>
      18:	0c 94 c6 01 	jmp	0x38c	; 0x38c <__bad_interrupt>
      1c:	0c 94 c6 01 	jmp	0x38c	; 0x38c <__bad_interrupt>
      20:	0c 94 c6 01 	jmp	0x38c	; 0x38c <__bad_interrupt>
      24:	0c 94 c6 01 	jmp	0x38c	; 0x38c <__bad_interrupt>
      28:	0c 94 c6 01 	jmp	0x38c	; 0x38c <__bad_interrupt>
      2c:	0c 94 c6 01 	jmp	0x38c	; 0x38c <__bad_interrupt>
      30:	0c 94 c6 01 	jmp	0x38c	; 0x38c <__bad_interrupt>
      34:	0c 94 c6 01 	jmp	0x38c	; 0x38c <__bad_interrupt>
      38:	0c 94 a6 09 	jmp	0x134c	; 0x134c <__vector_14>
      3c:	0c 94 c6 01 	jmp	0x38c	; 0x38c <__bad_interrupt>
      40:	0c 94 c6 01 	jmp	0x38c	; 0x38c <__bad_interrupt>
      44:	0c 94 c6 01 	jmp	0x38c	; 0x38c <__bad_interrupt>
      48:	0c 94 be 0e 	jmp	0x1d7c	; 0x1d7c <__vector_18>
      4c:	0c 94 c6 01 	jmp	0x38c	; 0x38c <__bad_interrupt>
      50:	0c 94 c6 01 	jmp	0x38c	; 0x38c <__bad_interrupt>
      54:	0c 94 c6 01 	jmp	0x38c	; 0x38c <__bad_interrupt>
      58:	0c 94 c6 01 	jmp	0x38c	; 0x38c <__bad_interrupt>
      5c:	0c 94 c6 01 	jmp	0x38c	; 0x38c <__bad_interrupt>
      60:	0c 94 c6 01 	jmp	0x38c	; 0x38c <__bad_interrupt>
      64:	0c 94 c6 01 	jmp	0x38c	; 0x38c <__bad_interrupt>

00000068 <__trampolines_end>:
      68:	7b 22       	and	r7, r27
      6a:	74 79       	andi	r23, 0x94	; 148
      6c:	70 65       	ori	r23, 0x50	; 80
      6e:	22 3a       	cpi	r18, 0xA2	; 162
      70:	22 65       	ori	r18, 0x52	; 82
      72:	78 63       	ori	r23, 0x38	; 56
      74:	65 70       	andi	r22, 0x05	; 5
      76:	74 69       	ori	r23, 0x94	; 148
      78:	6f 6e       	ori	r22, 0xEF	; 239
      7a:	22 2c       	mov	r2, r2
      7c:	22 6d       	ori	r18, 0xD2	; 210
      7e:	65 73       	andi	r22, 0x35	; 53
      80:	73 61       	ori	r23, 0x13	; 19
      82:	67 65       	ori	r22, 0x57	; 87
      84:	22 3a       	cpi	r18, 0xA2	; 162
      86:	22 25       	eor	r18, r2
      88:	73 22       	and	r7, r19
      8a:	7d 0a       	sbc	r7, r29
	...

0000008d <_ZZN8Endpoint16DissableFastModeEvE3__c>:
      8d:	7b 22 74 79 70 65 22 3a 22 6e 6f 74 5f 69 6e 5f     {"type":"not_in_
      9d:	66 61 73 74 5f 6d 6f 64 65 22 7d 0a 00              fast_mode"}..

000000aa <_ZZN8Endpoint14EnableFastModeEvE3__c>:
      aa:	7b 22 74 79 70 65 22 3a 22 69 6e 5f 66 61 73 74     {"type":"in_fast
      ba:	5f 6d 6f 64 65 22 7d 0a 00                          _mode"}..

000000c3 <_ZZN8Endpoint4TestEvE3__c>:
      c3:	7b 22 74 79 70 65 22 3a 22 74 65 73 74 22 7d 0a     {"type":"test"}.
	...

000000d4 <_ZZN8Endpoint3RunEvE3__c_4>:
      d4:	75 6e 69 74 5f 74 65 73 74 73 00                    unit_tests.

000000df <_ZZN8Endpoint3RunEvE3__c_3>:
      df:	67 65 74 5f 75 6e 69 74 5f 74 65 73 74 73 5f 6e     get_unit_tests_n
      ef:	61 6d 65 73 00                                      ames.

000000f4 <_ZZN8Endpoint3RunEvE3__c_2>:
      f4:	74 65 73 74 00                                      test.

000000f9 <_ZZN8Endpoint3RunEvE3__c_1>:
      f9:	67 65 74 5f 72 67 62 63 00                          get_rgbc.

00000102 <_ZZN8Endpoint3RunEvE3__c_0>:
     102:	64 69 73 73 61 62 6c 65 5f 66 61 73 74 5f 6d 6f     dissable_fast_mo
     112:	64 65 00                                            de.

00000115 <_ZZN8Endpoint3RunEvE3__c>:
     115:	65 6e 61 62 6c 65 5f 66 61 73 74 5f 6d 6f 64 65     enable_fast_mode
	...

00000126 <_ZZN6Assert12SendResponseEbPKcS1_P12ISendMessageE3__c_2>:
     126:	22 2c 22 70 61 73 73 65 64 22 3a 66 61 6c 73 65     ","passed":false
     136:	7d 0a 00                                            }..

00000139 <_ZZN6Assert12SendResponseEbPKcS1_P12ISendMessageE3__c_1>:
     139:	22 2c 22 65 78 63 65 70 74 69 6f 6e 22 3a 22 00     ","exception":".

00000149 <_ZZN6Assert12SendResponseEbPKcS1_P12ISendMessageE3__c_0>:
     149:	22 2c 22 70 61 73 73 65 64 22 3a 74 72 75 65 7d     ","passed":true}
     159:	0a 00                                               ..

0000015b <_ZZN6Assert12SendResponseEbPKcS1_P12ISendMessageE3__c>:
     15b:	7b 22 74 79 70 65 22 3a 22 75 6e 69 74 5f 74 65     {"type":"unit_te
     16b:	73 74 22 2c 22 6e 61 6d 65 22 3a 22 00              st","name":".

00000178 <_ZZN4RGBC8ToStringEvE3__c>:
     178:	7b 22 74 79 70 65 22 3a 22 72 67 62 63 22 2c 22     {"type":"rgbc","
     188:	72 22 3a 25 64 2c 22 67 22 3a 25 64 2c 22 62 22     r":%d,"g":%d,"b"
     198:	3a 25 64 2c 22 63 22 3a 25 64 7d 0a 00              :%d,"c":%d}..

000001a5 <_ZZN17TCS34725Exception8ToStringEvE3__c_0>:
     1a5:	25 73 20 65 78 70 65 72 69 65 6e 63 65 64 20 61     %s experienced a
     1b5:	20 63 6f 6d 6d 75 6e 69 63 61 74 69 6f 6e 20 65      communication e
     1c5:	72 72 6f 72 3a 20 25 73 00                          rror: %s.

000001ce <_ZZN17TCS34725Exception8ToStringEvE3__c>:
     1ce:	25 73 20 65 78 70 65 72 69 65 6e 63 65 64 20 61     %s experienced a
     1de:	20 63 6f 6e 66 69 67 75 72 61 74 69 6f 6e 20 65      configuration e
     1ee:	72 72 6f 72 3a 20 25 73 00                          rror: %s.

000001f7 <_ZZN17TCS34725UnitTests11TestGetRGBA3RunERbR10ExceptionsP12ISendMessageE3__c>:
     1f7:	47 65 74 52 47 42 41 00                             GetRGBA.

000001ff <_ZZN17TCS34725UnitTests17TestCalculateWait3RunERbR10ExceptionsP12ISendMessageE3__c_2>:
     1ff:	43 61 6c 63 75 6c 61 74 65 57 61 69 74 00           CalculateWait.

0000020d <_ZZN17TCS34725UnitTests17TestCalculateWait3RunERbR10ExceptionsP12ISendMessageE3__c_1>:
     20d:	47 65 74 43 61 6c 63 75 6c 61 74 65 57 61 69 74     GetCalculateWait
     21d:	20 74 65 73 74 32 20 66 61 69 6c 65 64 20 77 69      test2 failed wi
     22d:	74 68 20 57 54 49 4d 45 3a 20 20 25 30 34 64 20     th WTIME:  %04d 
     23d:	61 6e 64 20 57 4c 4f 4e 47 3a 20 25 30 31 64 2e     and WLONG: %01d.
	...

0000024e <_ZZN17TCS34725UnitTests17TestCalculateWait3RunERbR10ExceptionsP12ISendMessageE3__c_0>:
     24e:	43 61 6c 63 75 6c 61 74 65 57 61 69 74 00           CalculateWait.

0000025c <_ZZN17TCS34725UnitTests17TestCalculateWait3RunERbR10ExceptionsP12ISendMessageE3__c>:
     25c:	47 65 74 43 61 6c 63 75 6c 61 74 65 57 61 69 74     GetCalculateWait
     26c:	20 74 65 73 74 20 66 61 69 6c 65 64 20 77 69 74      test failed wit
     27c:	68 20 57 54 49 4d 45 3a 20 25 30 34 64 20 61 6e     h WTIME: %04d an
     28c:	64 20 57 4c 4f 4e 47 3a 20 25 30 31 64 2e 00        d WLONG: %01d..

0000029b <_ZZN17TCS34725UnitTests12TestGetAGain3RunERbR10ExceptionsP12ISendMessageE3__c>:
     29b:	47 65 74 41 47 61 69 6e 00                          GetAGain.

000002a4 <_ZZN17TCS34725UnitTests12TestGetAGain3RunERbR10ExceptionsP12ISendMessageE3__c_0>:
     2a4:	47 65 74 41 47 61 69 6e 20 74 65 73 74 20 66 61     GetAGain test fa
     2b4:	69 6c 65 64 21 00                                   iled!.

000002ba <_ZZN17TCS34725UnitTests12TestGetATime3RunERbR10ExceptionsP12ISendMessageE3__c>:
     2ba:	47 65 74 41 54 69 6d 65 00                          GetATime.

000002c3 <_ZZN17TCS34725UnitTests12TestGetATime3RunERbR10ExceptionsP12ISendMessageE3__c_0>:
     2c3:	47 65 74 41 54 69 6d 65 20 74 65 73 74 20 66 61     GetATime test fa
     2d3:	69 6c 65 64 21 00                                   iled!.

000002d9 <_ZZN17TCS34725UnitTests11TestGetRGBA7GetNameEvE3__c>:
     2d9:	47 65 74 52 47 42 41 00                             GetRGBA.

000002e1 <_ZZN17TCS34725UnitTests17TestCalculateWait7GetNameEvE3__c>:
     2e1:	43 61 6c 63 75 6c 61 74 65 57 61 69 74 00           CalculateWait.

000002ef <_ZZN17TCS34725UnitTests12TestGetAGain7GetNameEvE3__c>:
     2ef:	47 65 74 41 47 61 69 6e 00                          GetAGain.

000002f8 <_ZZN17TCS34725UnitTests12TestGetATime7GetNameEvE3__c>:
     2f8:	47 65 74 41 54 69 6d 65 00                          GetATime.

00000301 <_ZZN5Tests12GetTestNamesEvE3__c_3>:
     301:	5d 7d 0a 00                                         ]}..

00000305 <_ZZN5Tests12GetTestNamesEvE3__c_2>:
     305:	22 00                                               ".

00000307 <_ZZN5Tests12GetTestNamesEvE3__c_1>:
     307:	2c 22 00                                            ,".

0000030a <_ZZN5Tests12GetTestNamesEvE3__c_0>:
     30a:	22 00                                               ".

0000030c <_ZZN5Tests12GetTestNamesEvE3__c>:
     30c:	7b 22 74 79 70 65 22 3a 22 75 6e 69 74 5f 74 65     {"type":"unit_te
     31c:	73 74 73 5f 6e 61 6d 65 73 22 2c 22 6e 61 6d 65     sts_names","name
     32c:	73 22 3a 5b 00 00                                   s":[..

00000332 <__ctors_start>:
     332:	f1 09       	sbc	r31, r1
     334:	0a 0f       	add	r16, r26
     336:	ce 0f       	add	r28, r30
     338:	9a 11       	cpse	r25, r10

0000033a <__ctors_end>:
     33a:	02 0a       	sbc	r0, r18

0000033c <__dtors_end>:
     33c:	11 24       	eor	r1, r1
     33e:	1f be       	out	0x3f, r1	; 63
     340:	cf ef       	ldi	r28, 0xFF	; 255
     342:	d8 e0       	ldi	r29, 0x08	; 8
     344:	de bf       	out	0x3e, r29	; 62
     346:	cd bf       	out	0x3d, r28	; 61

00000348 <__do_copy_data>:
     348:	12 e0       	ldi	r17, 0x02	; 2
     34a:	a0 e0       	ldi	r26, 0x00	; 0
     34c:	b1 e0       	ldi	r27, 0x01	; 1
     34e:	ea ec       	ldi	r30, 0xCA	; 202
     350:	f8 e3       	ldi	r31, 0x38	; 56
     352:	02 c0       	rjmp	.+4      	; 0x358 <__do_copy_data+0x10>
     354:	05 90       	lpm	r0, Z+
     356:	0d 92       	st	X+, r0
     358:	a4 3d       	cpi	r26, 0xD4	; 212
     35a:	b1 07       	cpc	r27, r17
     35c:	d9 f7       	brne	.-10     	; 0x354 <__do_copy_data+0xc>

0000035e <__do_clear_bss>:
     35e:	24 e0       	ldi	r18, 0x04	; 4
     360:	a4 ed       	ldi	r26, 0xD4	; 212
     362:	b2 e0       	ldi	r27, 0x02	; 2
     364:	01 c0       	rjmp	.+2      	; 0x368 <.do_clear_bss_start>

00000366 <.do_clear_bss_loop>:
     366:	1d 92       	st	X+, r1

00000368 <.do_clear_bss_start>:
     368:	a1 30       	cpi	r26, 0x01	; 1
     36a:	b2 07       	cpc	r27, r18
     36c:	e1 f7       	brne	.-8      	; 0x366 <.do_clear_bss_loop>

0000036e <__do_global_ctors>:
     36e:	11 e0       	ldi	r17, 0x01	; 1
     370:	cd e9       	ldi	r28, 0x9D	; 157
     372:	d1 e0       	ldi	r29, 0x01	; 1
     374:	04 c0       	rjmp	.+8      	; 0x37e <__do_global_ctors+0x10>
     376:	21 97       	sbiw	r28, 0x01	; 1
     378:	fe 01       	movw	r30, r28
     37a:	0e 94 f4 17 	call	0x2fe8	; 0x2fe8 <__tablejump2__>
     37e:	c9 39       	cpi	r28, 0x99	; 153
     380:	d1 07       	cpc	r29, r17
     382:	c9 f7       	brne	.-14     	; 0x376 <__do_global_ctors+0x8>
     384:	0e 94 1b 03 	call	0x636	; 0x636 <main>
     388:	0c 94 58 1c 	jmp	0x38b0	; 0x38b0 <__do_global_dtors>

0000038c <__bad_interrupt>:
     38c:	0c 94 00 00 	jmp	0	; 0x0 <__vectors>

00000390 <i2c_delay_T2>:
	...
nop
nop
nop
nop
nop
nop
     3d4:	00 00       	nop
	ret          ; 3   "
     3d6:	08 95       	ret

000003d8 <i2c_init>:
; extern void i2c_init(void)
;*************************************************************************
	.global i2c_init
	.func i2c_init
i2c_init:
	cbi SDA_DDR,SDA		;release SDA
     3d8:	3c 98       	cbi	0x07, 4	; 7
	cbi SCL_DDR,SCL		;release SCL
     3da:	3d 98       	cbi	0x07, 5	; 7
	cbi SDA_OUT,SDA
     3dc:	44 98       	cbi	0x08, 4	; 8
	cbi SCL_OUT,SCL
     3de:	45 98       	cbi	0x08, 5	; 8
	ret
     3e0:	08 95       	ret

000003e2 <i2c_start>:
;*************************************************************************

	.global i2c_start
	.func   i2c_start
i2c_start:
	sbi 	SDA_DDR,SDA	;force SDA low
     3e2:	3c 9a       	sbi	0x07, 4	; 7
	rcall 	i2c_delay_T2	;delay T/2
     3e4:	d5 df       	rcall	.-86     	; 0x390 <i2c_delay_T2>
	
	rcall 	i2c_write	;write address
     3e6:	1d d0       	rcall	.+58     	; 0x422 <i2c_write>
	ret
     3e8:	08 95       	ret

000003ea <i2c_rep_start>:
;*************************************************************************

	.global i2c_rep_start
	.func	i2c_rep_start
i2c_rep_start:
	sbi	SCL_DDR,SCL	;force SCL low
     3ea:	3d 9a       	sbi	0x07, 5	; 7
	rcall 	i2c_delay_T2	;delay  T/2
     3ec:	d1 df       	rcall	.-94     	; 0x390 <i2c_delay_T2>
	cbi	SDA_DDR,SDA	;release SDA
     3ee:	3c 98       	cbi	0x07, 4	; 7
	rcall	i2c_delay_T2	;delay T/2
     3f0:	cf df       	rcall	.-98     	; 0x390 <i2c_delay_T2>
	cbi	SCL_DDR,SCL	;release SCL
     3f2:	3d 98       	cbi	0x07, 5	; 7
	rcall 	i2c_delay_T2	;delay  T/2
     3f4:	cd df       	rcall	.-102    	; 0x390 <i2c_delay_T2>
	sbi 	SDA_DDR,SDA	;force SDA low
     3f6:	3c 9a       	sbi	0x07, 4	; 7
	rcall 	i2c_delay_T2	;delay	T/2
     3f8:	cb df       	rcall	.-106    	; 0x390 <i2c_delay_T2>
	
	rcall	i2c_write	;write address
     3fa:	13 d0       	rcall	.+38     	; 0x422 <i2c_write>
	ret
     3fc:	08 95       	ret

000003fe <i2c_start_wait>:
;*************************************************************************

	.global i2c_start_wait
	.func   i2c_start_wait
i2c_start_wait:
	mov	__tmp_reg__,r24
     3fe:	08 2e       	mov	r0, r24

00000400 <i2c_start_wait1>:
i2c_start_wait1:
	sbi 	SDA_DDR,SDA	;force SDA low
     400:	3c 9a       	sbi	0x07, 4	; 7
	rcall 	i2c_delay_T2	;delay T/2
     402:	c6 df       	rcall	.-116    	; 0x390 <i2c_delay_T2>
	mov	r24,__tmp_reg__
     404:	80 2d       	mov	r24, r0
	rcall 	i2c_write	;write address
     406:	0d d0       	rcall	.+26     	; 0x422 <i2c_write>
	tst	r24		;if device not busy -> done
     408:	88 23       	and	r24, r24
	breq	i2c_start_wait_done
     40a:	11 f0       	breq	.+4      	; 0x410 <i2c_start_wait_done>
	rcall	i2c_stop	;terminate write operation
     40c:	02 d0       	rcall	.+4      	; 0x412 <i2c_stop>
	rjmp	i2c_start_wait1	;device busy, poll ack again
     40e:	f8 cf       	rjmp	.-16     	; 0x400 <i2c_start_wait1>

00000410 <i2c_start_wait_done>:
i2c_start_wait_done:
	ret
     410:	08 95       	ret

00000412 <i2c_stop>:
;*************************************************************************

	.global	i2c_stop
	.func	i2c_stop
i2c_stop:
	sbi	SCL_DDR,SCL	;force SCL low
     412:	3d 9a       	sbi	0x07, 5	; 7
	sbi	SDA_DDR,SDA	;force SDA low
     414:	3c 9a       	sbi	0x07, 4	; 7
	rcall	i2c_delay_T2	;delay T/2
     416:	bc df       	rcall	.-136    	; 0x390 <i2c_delay_T2>
	cbi	SCL_DDR,SCL	;release SCL
     418:	3d 98       	cbi	0x07, 5	; 7
	rcall	i2c_delay_T2	;delay T/2
     41a:	ba df       	rcall	.-140    	; 0x390 <i2c_delay_T2>
	cbi	SDA_DDR,SDA	;release SDA
     41c:	3c 98       	cbi	0x07, 4	; 7
	rcall	i2c_delay_T2	;delay T/2
     41e:	b8 df       	rcall	.-144    	; 0x390 <i2c_delay_T2>
	ret
     420:	08 95       	ret

00000422 <i2c_write>:
;	data = r24,  return = r25(=0):r24
;*************************************************************************
	.global i2c_write
	.func	i2c_write
i2c_write:
	sec			;set carry flag
     422:	08 94       	sec
	rol 	r24		;shift in carry and out bit one
     424:	88 1f       	adc	r24, r24
	rjmp	i2c_write_first
     426:	01 c0       	rjmp	.+2      	; 0x42a <i2c_write_first>

00000428 <i2c_write_bit>:
i2c_write_bit:
	lsl	r24		;if transmit register empty
     428:	88 0f       	add	r24, r24

0000042a <i2c_write_first>:
i2c_write_first:
	breq	i2c_get_ack
     42a:	59 f0       	breq	.+22     	; 0x442 <i2c_get_ack>
	sbi	SCL_DDR,SCL	;force SCL low
     42c:	3d 9a       	sbi	0x07, 5	; 7
	brcc	i2c_write_low
     42e:	18 f4       	brcc	.+6      	; 0x436 <i2c_write_low>
	nop
     430:	00 00       	nop
	cbi	SDA_DDR,SDA	;release SDA
     432:	3c 98       	cbi	0x07, 4	; 7
	rjmp	i2c_write_high
     434:	02 c0       	rjmp	.+4      	; 0x43a <i2c_write_high>

00000436 <i2c_write_low>:
i2c_write_low:
	sbi	SDA_DDR,SDA	;force SDA low
     436:	3c 9a       	sbi	0x07, 4	; 7
	rjmp	i2c_write_high
     438:	00 c0       	rjmp	.+0      	; 0x43a <i2c_write_high>

0000043a <i2c_write_high>:
i2c_write_high:
	rcall 	i2c_delay_T2	;delay T/2
     43a:	aa df       	rcall	.-172    	; 0x390 <i2c_delay_T2>
	cbi	SCL_DDR,SCL	;release SCL
     43c:	3d 98       	cbi	0x07, 5	; 7
	rcall	i2c_delay_T2	;delay T/2
     43e:	a8 df       	rcall	.-176    	; 0x390 <i2c_delay_T2>
	rjmp	i2c_write_bit
     440:	f3 cf       	rjmp	.-26     	; 0x428 <i2c_write_bit>

00000442 <i2c_get_ack>:
	
i2c_get_ack:
	sbi	SCL_DDR,SCL	;force SCL low
     442:	3d 9a       	sbi	0x07, 5	; 7
	cbi	SDA_DDR,SDA	;release SDA
     444:	3c 98       	cbi	0x07, 4	; 7
	rcall	i2c_delay_T2	;delay T/2
     446:	a4 df       	rcall	.-184    	; 0x390 <i2c_delay_T2>
	cbi	SCL_DDR,SCL	;release SCL
     448:	3d 98       	cbi	0x07, 5	; 7

0000044a <i2c_ack_wait>:
i2c_ack_wait:
	sbis	SCL_IN,SCL	;wait SCL high (in case wait states are inserted)
     44a:	35 9b       	sbis	0x06, 5	; 6
	rjmp	i2c_ack_wait
     44c:	fe cf       	rjmp	.-4      	; 0x44a <i2c_ack_wait>
	
	clr	r24		;return 0
     44e:	88 27       	eor	r24, r24
	sbic	SDA_IN,SDA	;if SDA high -> return 1
     450:	34 99       	sbic	0x06, 4	; 6
	ldi	r24,1
     452:	81 e0       	ldi	r24, 0x01	; 1
	rcall	i2c_delay_T2	;delay T/2
     454:	9d df       	rcall	.-198    	; 0x390 <i2c_delay_T2>
	clr	r25
     456:	99 27       	eor	r25, r25
	ret
     458:	08 95       	ret

0000045a <i2c_readNak>:
	.global i2c_readAck
	.global i2c_readNak
	.global i2c_read		
	.func	i2c_read
i2c_readNak:
	clr	r24
     45a:	88 27       	eor	r24, r24
	rjmp	i2c_read
     45c:	01 c0       	rjmp	.+2      	; 0x460 <i2c_read>

0000045e <i2c_readAck>:
i2c_readAck:
	ldi	r24,0x01
     45e:	81 e0       	ldi	r24, 0x01	; 1

00000460 <i2c_read>:
i2c_read:
	ldi	r23,0x01	;data = 0x01
     460:	71 e0       	ldi	r23, 0x01	; 1

00000462 <i2c_read_bit>:
i2c_read_bit:
	sbi	SCL_DDR,SCL	;force SCL low
     462:	3d 9a       	sbi	0x07, 5	; 7
	cbi	SDA_DDR,SDA	;release SDA (from previous ACK)
     464:	3c 98       	cbi	0x07, 4	; 7
	rcall	i2c_delay_T2	;delay T/2
     466:	94 df       	rcall	.-216    	; 0x390 <i2c_delay_T2>
	
	cbi	SCL_DDR,SCL	;release SCL
     468:	3d 98       	cbi	0x07, 5	; 7
	rcall	i2c_delay_T2	;delay T/2
     46a:	92 df       	rcall	.-220    	; 0x390 <i2c_delay_T2>

0000046c <i2c_read_stretch>:
	
i2c_read_stretch:
    sbis SCL_IN, SCL        ;loop until SCL is high (allow slave to stretch SCL)
     46c:	35 9b       	sbis	0x06, 5	; 6
    rjmp	i2c_read_stretch
     46e:	fe cf       	rjmp	.-4      	; 0x46c <i2c_read_stretch>
    	
	clc			;clear carry flag
     470:	88 94       	clc
	sbic	SDA_IN,SDA	;if SDA is high
     472:	34 99       	sbic	0x06, 4	; 6
	sec			;  set carry flag
     474:	08 94       	sec
	
	rol	r23		;store bit
     476:	77 1f       	adc	r23, r23
	brcc	i2c_read_bit	;while receive register not full
     478:	a0 f7       	brcc	.-24     	; 0x462 <i2c_read_bit>

0000047a <i2c_put_ack>:
	
i2c_put_ack:
	sbi	SCL_DDR,SCL	;force SCL low	
     47a:	3d 9a       	sbi	0x07, 5	; 7
	cpi	r24,1
     47c:	81 30       	cpi	r24, 0x01	; 1
	breq	i2c_put_ack_low	;if (ack=0)
     47e:	11 f0       	breq	.+4      	; 0x484 <i2c_put_ack_low>
	cbi	SDA_DDR,SDA	;      release SDA
     480:	3c 98       	cbi	0x07, 4	; 7
	rjmp	i2c_put_ack_high
     482:	01 c0       	rjmp	.+2      	; 0x486 <i2c_put_ack_high>

00000484 <i2c_put_ack_low>:
i2c_put_ack_low:                ;else
	sbi	SDA_DDR,SDA	;      force SDA low
     484:	3c 9a       	sbi	0x07, 4	; 7

00000486 <i2c_put_ack_high>:
i2c_put_ack_high:
	rcall	i2c_delay_T2	;delay T/2
     486:	84 df       	rcall	.-248    	; 0x390 <i2c_delay_T2>
	cbi	SCL_DDR,SCL	;release SCL
     488:	3d 98       	cbi	0x07, 5	; 7

0000048a <i2c_put_ack_wait>:
i2c_put_ack_wait:
	sbis	SCL_IN,SCL	;wait SCL high
     48a:	35 9b       	sbis	0x06, 5	; 6
	rjmp	i2c_put_ack_wait
     48c:	fe cf       	rjmp	.-4      	; 0x48a <i2c_put_ack_wait>
	rcall	i2c_delay_T2	;delay T/2
     48e:	80 df       	rcall	.-256    	; 0x390 <i2c_delay_T2>
	mov	r24,r23
     490:	87 2f       	mov	r24, r23
	clr	r25
     492:	99 27       	eor	r25, r25
	ret
     494:	08 95       	ret

00000496 <_ZN7PHelper7MarshalEPKc>:
*/


#include "PHelper.h"
#include<avr/pgmspace.h>
Cleanup<const char*> PHelper::Marshal(const char* p){
     496:	ef 92       	push	r14
     498:	ff 92       	push	r15
     49a:	0f 93       	push	r16
     49c:	1f 93       	push	r17
     49e:	cf 93       	push	r28
     4a0:	df 93       	push	r29
     4a2:	ec 01       	movw	r28, r24
     4a4:	7b 01       	movw	r14, r22
#else
extern size_t __strlen_P(const char *) __ATTR_CONST__;  /* internal helper function */
__attribute__((__always_inline__)) static __inline__ size_t strlen_P(const char * s);
static __inline__ size_t strlen_P(const char *s) {
  return __builtin_constant_p(__builtin_strlen(s))
     ? __builtin_strlen(s) : __strlen_P(s);
     4a6:	cb 01       	movw	r24, r22
     4a8:	0e 94 45 19 	call	0x328a	; 0x328a <__strlen_P>
	char* buffer=(char*)malloc(strlen_P(p)+1);
     4ac:	01 96       	adiw	r24, 0x01	; 1
     4ae:	0e 94 14 18 	call	0x3028	; 0x3028 <malloc>
     4b2:	8c 01       	movw	r16, r24
	strcpy_P(buffer, p);
     4b4:	b7 01       	movw	r22, r14
     4b6:	0e 94 3e 19 	call	0x327c	; 0x327c <strcpy_P>
	bool dontDelete;
	protected:
	private:
	//functions
	public:
	Cleanup(T payload):payload(payload), dontDelete(false)
     4ba:	19 83       	std	Y+1, r17	; 0x01
     4bc:	08 83       	st	Y, r16
     4be:	1a 82       	std	Y+2, r1	; 0x02
	return Cleanup<const char*>((const char*)buffer);
}
     4c0:	ce 01       	movw	r24, r28
     4c2:	df 91       	pop	r29
     4c4:	cf 91       	pop	r28
     4c6:	1f 91       	pop	r17
     4c8:	0f 91       	pop	r16
     4ca:	ff 90       	pop	r15
     4cc:	ef 90       	pop	r14
     4ce:	08 95       	ret

000004d0 <_ZN7PHelper5SendPEPKcP12ISendMessage>:

void PHelper::SendP(const char* str, ISendMessage* iSendMessage){
     4d0:	8f 92       	push	r8
     4d2:	9f 92       	push	r9
     4d4:	af 92       	push	r10
     4d6:	bf 92       	push	r11
     4d8:	cf 92       	push	r12
     4da:	df 92       	push	r13
     4dc:	ef 92       	push	r14
     4de:	ff 92       	push	r15
     4e0:	0f 93       	push	r16
     4e2:	1f 93       	push	r17
     4e4:	cf 93       	push	r28
     4e6:	df 93       	push	r29
     4e8:	cd b7       	in	r28, 0x3d	; 61
     4ea:	de b7       	in	r29, 0x3e	; 62
     4ec:	5c 01       	movw	r10, r24
     4ee:	8b 01       	movw	r16, r22
	size_t length = strlen_P(str);
	char buffer[length+1];
	strcpy_P(buffer, str);
	iSendMessage->SendMessage(buffer, length);
     4f0:	8d b6       	in	r8, 0x3d	; 61
     4f2:	9e b6       	in	r9, 0x3e	; 62
     4f4:	0e 94 45 19 	call	0x328a	; 0x328a <__strlen_P>
     4f8:	6c 01       	movw	r12, r24
	return Cleanup<const char*>((const char*)buffer);
}

void PHelper::SendP(const char* str, ISendMessage* iSendMessage){
	size_t length = strlen_P(str);
	char buffer[length+1];
     4fa:	01 96       	adiw	r24, 0x01	; 1
     4fc:	2d b7       	in	r18, 0x3d	; 61
     4fe:	3e b7       	in	r19, 0x3e	; 62
     500:	28 1b       	sub	r18, r24
     502:	39 0b       	sbc	r19, r25
     504:	0f b6       	in	r0, 0x3f	; 63
     506:	f8 94       	cli
     508:	3e bf       	out	0x3e, r19	; 62
     50a:	0f be       	out	0x3f, r0	; 63
     50c:	2d bf       	out	0x3d, r18	; 61
     50e:	8d b7       	in	r24, 0x3d	; 61
     510:	9e b7       	in	r25, 0x3e	; 62
     512:	01 96       	adiw	r24, 0x01	; 1
     514:	7c 01       	movw	r14, r24
	strcpy_P(buffer, str);
     516:	b5 01       	movw	r22, r10
     518:	0e 94 3e 19 	call	0x327c	; 0x327c <strcpy_P>
	iSendMessage->SendMessage(buffer, length);
     51c:	d8 01       	movw	r26, r16
     51e:	ed 91       	ld	r30, X+
     520:	fc 91       	ld	r31, X
     522:	01 90       	ld	r0, Z+
     524:	f0 81       	ld	r31, Z
     526:	e0 2d       	mov	r30, r0
     528:	a6 01       	movw	r20, r12
     52a:	b7 01       	movw	r22, r14
     52c:	c8 01       	movw	r24, r16
     52e:	09 95       	icall
     530:	0f b6       	in	r0, 0x3f	; 63
     532:	f8 94       	cli
     534:	9e be       	out	0x3e, r9	; 62
     536:	0f be       	out	0x3f, r0	; 63
     538:	8d be       	out	0x3d, r8	; 61
     53a:	df 91       	pop	r29
     53c:	cf 91       	pop	r28
     53e:	1f 91       	pop	r17
     540:	0f 91       	pop	r16
     542:	ff 90       	pop	r15
     544:	ef 90       	pop	r14
     546:	df 90       	pop	r13
     548:	cf 90       	pop	r12
     54a:	bf 90       	pop	r11
     54c:	af 90       	pop	r10
     54e:	9f 90       	pop	r9
     550:	8f 90       	pop	r8
     552:	08 95       	ret

00000554 <_ZN20ColourSensorTCS3472511SetFastModeEbRbR10Exceptions>:
#include "UART.h"
#include <string.h>
ColourSensorTCS34725::ColourSensorTCS34725(TCS34725* tcs34725, ISendRGBC* iSendRGBC, ISubscriptionRunner* iSubscriptionRunner, ILed* iLedSource): tcs34725(tcs34725), iSendRGBC(iSendRGBC), iSubscriptionRunner(iSubscriptionRunner), iLedSource(iLedSource), state(Running){
	
}
void ColourSensorTCS34725::SetFastMode (bool fast, bool& successful, Exceptions& exceptions){
     554:	fc 01       	movw	r30, r24
	this->fast=fast;
     556:	67 83       	std	Z+7, r22	; 0x07
	if(fast)
     558:	66 23       	and	r22, r22
     55a:	69 f0       	breq	.+26     	; 0x576 <_ZN20ColourSensorTCS3472511SetFastModeEbRbR10Exceptions+0x22>
	{
		iSubscriptionRunner->Subscribe(this);
     55c:	86 85       	ldd	r24, Z+14	; 0x0e
     55e:	97 85       	ldd	r25, Z+15	; 0x0f
     560:	bf 01       	movw	r22, r30
     562:	6c 5f       	subi	r22, 0xFC	; 252
     564:	7f 4f       	sbci	r23, 0xFF	; 255
     566:	dc 01       	movw	r26, r24
     568:	ed 91       	ld	r30, X+
     56a:	fc 91       	ld	r31, X
     56c:	01 90       	ld	r0, Z+
     56e:	f0 81       	ld	r31, Z
     570:	e0 2d       	mov	r30, r0
     572:	09 95       	icall
     574:	08 95       	ret
	}
	else
	{
		iSubscriptionRunner->Unsubscribe(this);
     576:	86 85       	ldd	r24, Z+14	; 0x0e
     578:	97 85       	ldd	r25, Z+15	; 0x0f
     57a:	bf 01       	movw	r22, r30
     57c:	6c 5f       	subi	r22, 0xFC	; 252
     57e:	7f 4f       	sbci	r23, 0xFF	; 255
     580:	dc 01       	movw	r26, r24
     582:	ed 91       	ld	r30, X+
     584:	fc 91       	ld	r31, X
     586:	02 80       	ldd	r0, Z+2	; 0x02
     588:	f3 81       	ldd	r31, Z+3	; 0x03
     58a:	e0 2d       	mov	r30, r0
     58c:	09 95       	icall
     58e:	08 95       	ret

00000590 <_ZN20ColourSensorTCS347253RunEv>:
	}
}

void ColourSensorTCS34725::Run(){
     590:	08 95       	ret

00000592 <_ZThn4_N20ColourSensorTCS347253RunEv>:
     592:	08 95       	ret

00000594 <_ZN20ColourSensorTCS347257GetRGBCERbR10Exceptions>:
	if(successful)
	{
		iSendRGBC->SendRGBC(rgbc);
	}
}
RGBC ColourSensorTCS34725::GetRGBC(bool& successful , Exceptions& exceptions){
     594:	cf 93       	push	r28
     596:	df 93       	push	r29
     598:	cd b7       	in	r28, 0x3d	; 61
     59a:	de b7       	in	r29, 0x3e	; 62
     59c:	28 97       	sbiw	r28, 0x08	; 8
     59e:	0f b6       	in	r0, 0x3f	; 63
     5a0:	f8 94       	cli
     5a2:	de bf       	out	0x3e, r29	; 62
     5a4:	0f be       	out	0x3f, r0	; 63
     5a6:	cd bf       	out	0x3d, r28	; 61
	return tcs34725->GetRGBC(successful, exceptions);
     5a8:	dc 01       	movw	r26, r24
     5aa:	18 96       	adiw	r26, 0x08	; 8
     5ac:	8d 91       	ld	r24, X+
     5ae:	9c 91       	ld	r25, X
     5b0:	19 97       	sbiw	r26, 0x09	; 9
     5b2:	dc 01       	movw	r26, r24
     5b4:	ed 91       	ld	r30, X+
     5b6:	fc 91       	ld	r31, X
     5b8:	01 90       	ld	r0, Z+
     5ba:	f0 81       	ld	r31, Z
     5bc:	e0 2d       	mov	r30, r0
     5be:	09 95       	icall
     5c0:	28 96       	adiw	r28, 0x08	; 8
     5c2:	0f b6       	in	r0, 0x3f	; 63
     5c4:	f8 94       	cli
     5c6:	de bf       	out	0x3e, r29	; 62
     5c8:	0f be       	out	0x3f, r0	; 63
     5ca:	cd bf       	out	0x3d, r28	; 61
     5cc:	df 91       	pop	r29
     5ce:	cf 91       	pop	r28
     5d0:	08 95       	ret

000005d2 <_ZThn2_N20ColourSensorTCS347257GetRGBCERbR10Exceptions>:
     5d2:	cf 93       	push	r28
     5d4:	df 93       	push	r29
     5d6:	cd b7       	in	r28, 0x3d	; 61
     5d8:	de b7       	in	r29, 0x3e	; 62
     5da:	28 97       	sbiw	r28, 0x08	; 8
     5dc:	0f b6       	in	r0, 0x3f	; 63
     5de:	f8 94       	cli
     5e0:	de bf       	out	0x3e, r29	; 62
     5e2:	0f be       	out	0x3f, r0	; 63
     5e4:	cd bf       	out	0x3d, r28	; 61
     5e6:	02 97       	sbiw	r24, 0x02	; 2
     5e8:	0e 94 ca 02 	call	0x594	; 0x594 <_ZN20ColourSensorTCS347257GetRGBCERbR10Exceptions>
     5ec:	28 96       	adiw	r28, 0x08	; 8
     5ee:	0f b6       	in	r0, 0x3f	; 63
     5f0:	f8 94       	cli
     5f2:	de bf       	out	0x3e, r29	; 62
     5f4:	0f be       	out	0x3f, r0	; 63
     5f6:	cd bf       	out	0x3d, r28	; 61
     5f8:	df 91       	pop	r29
     5fa:	cf 91       	pop	r28
     5fc:	08 95       	ret

000005fe <_ZN20ColourSensorTCS34725C1EP8TCS34725P9ISendRGBCP19ISubscriptionRunnerP4ILed>:
#include "ColourSensorTCS34725.h"
#include "Exceptions.h"
#include "RGBC.h"
#include "UART.h"
#include <string.h>
ColourSensorTCS34725::ColourSensorTCS34725(TCS34725* tcs34725, ISendRGBC* iSendRGBC, ISubscriptionRunner* iSubscriptionRunner, ILed* iLedSource): tcs34725(tcs34725), iSendRGBC(iSendRGBC), iSubscriptionRunner(iSubscriptionRunner), iLedSource(iLedSource), state(Running){
     5fe:	0f 93       	push	r16
     600:	1f 93       	push	r17
     602:	fc 01       	movw	r30, r24
     604:	8a e0       	ldi	r24, 0x0A	; 10
     606:	91 e0       	ldi	r25, 0x01	; 1
     608:	91 83       	std	Z+1, r25	; 0x01
     60a:	80 83       	st	Z, r24
     60c:	84 e1       	ldi	r24, 0x14	; 20
     60e:	91 e0       	ldi	r25, 0x01	; 1
     610:	93 83       	std	Z+3, r25	; 0x03
     612:	82 83       	std	Z+2, r24	; 0x02
     614:	8a e1       	ldi	r24, 0x1A	; 26
     616:	91 e0       	ldi	r25, 0x01	; 1
     618:	95 83       	std	Z+5, r25	; 0x05
     61a:	84 83       	std	Z+4, r24	; 0x04
     61c:	81 e0       	ldi	r24, 0x01	; 1
     61e:	86 83       	std	Z+6, r24	; 0x06
     620:	71 87       	std	Z+9, r23	; 0x09
     622:	60 87       	std	Z+8, r22	; 0x08
     624:	53 87       	std	Z+11, r21	; 0x0b
     626:	42 87       	std	Z+10, r20	; 0x0a
     628:	15 87       	std	Z+13, r17	; 0x0d
     62a:	04 87       	std	Z+12, r16	; 0x0c
     62c:	37 87       	std	Z+15, r19	; 0x0f
     62e:	26 87       	std	Z+14, r18	; 0x0e
	
}
     630:	1f 91       	pop	r17
     632:	0f 91       	pop	r16
     634:	08 95       	ret

00000636 <main>:
#define DESIRED_CURRENT_MA 200
#define PERSISTENCE 3
#define DESIRED_GAIN 1
#define ATIME_MILLISECONDS 10
int main(void)
{
     636:	cf 93       	push	r28
     638:	df 93       	push	r29
     63a:	cd b7       	in	r28, 0x3d	; 61
     63c:	de b7       	in	r29, 0x3e	; 62
     63e:	a0 97       	sbiw	r28, 0x20	; 32
     640:	0f b6       	in	r0, 0x3f	; 63
     642:	f8 94       	cli
     644:	de bf       	out	0x3e, r29	; 62
     646:	0f be       	out	0x3f, r0	; 63
     648:	cd bf       	out	0x3d, r28	; 61
				"out __SREG__,__tmp_reg__"   "\n\t"
				: [TEMPREG] "=d" (temp_reg)
				: [WDTREG]  "n"  (_SFR_MEM_ADDR(_WD_CONTROL_REG)),
				[WDCE_WDE]  "n"  ((uint8_t)(_BV(_WD_CHANGE_BIT) | _BV(WDE)))
				: "r0"
		);
     64a:	0f b6       	in	r0, 0x3f	; 63
     64c:	f8 94       	cli
     64e:	a8 95       	wdr
     650:	80 91 60 00 	lds	r24, 0x0060	; 0x800060 <__TEXT_REGION_LENGTH__+0x7e0060>
     654:	88 61       	ori	r24, 0x18	; 24
     656:	80 93 60 00 	sts	0x0060, r24	; 0x800060 <__TEXT_REGION_LENGTH__+0x7e0060>
     65a:	10 92 60 00 	sts	0x0060, r1	; 0x800060 <__TEXT_REGION_LENGTH__+0x7e0060>
     65e:	0f be       	out	0x3f, r0	; 63
	wdt_disable();
	i2c_init();
     660:	0e 94 ec 01 	call	0x3d8	; 0x3d8 <i2c_init>
	Outputs::Initialize();
     664:	0e 94 d3 0f 	call	0x1fa6	; 0x1fa6 <_ZN7Outputs10InitializeEv>
	Leds& leds = Leds::GetInstance();
     668:	0e 94 77 0f 	call	0x1eee	; 0x1eee <_ZN4Leds11GetInstanceEv>
     66c:	3c 01       	movw	r6, r24
	Stopwatch stopWatch = Stopwatch();
     66e:	ce 01       	movw	r24, r28
     670:	01 96       	adiw	r24, 0x01	; 1
     672:	0e 94 3a 08 	call	0x1074	; 0x1074 <_ZN9StopwatchC1Ev>
	UART& uart = UART::GetInstance();
     676:	0e 94 05 0e 	call	0x1c0a	; 0x1c0a <_ZN4UART11GetInstanceEv>
     67a:	2c 01       	movw	r4, r24
	leds.GetBacklight()->TurnOn();
     67c:	c3 01       	movw	r24, r6
     67e:	0e 94 c6 0f 	call	0x1f8c	; 0x1f8c <_ZN4Leds12GetBacklightEv>
     682:	dc 01       	movw	r26, r24
     684:	ed 91       	ld	r30, X+
     686:	fc 91       	ld	r31, X
     688:	01 90       	ld	r0, Z+
     68a:	f0 81       	ld	r31, Z
     68c:	e0 2d       	mov	r30, r0
     68e:	09 95       	icall
	leds.GetMain()->TurnOff();
     690:	c3 01       	movw	r24, r6
     692:	0e 94 ca 0f 	call	0x1f94	; 0x1f94 <_ZN4Leds7GetMainEv>
     696:	dc 01       	movw	r26, r24
     698:	ed 91       	ld	r30, X+
     69a:	fc 91       	ld	r31, X
     69c:	02 80       	ldd	r0, Z+2	; 0x02
     69e:	f3 81       	ldd	r31, Z+3	; 0x03
     6a0:	e0 2d       	mov	r30, r0
     6a2:	09 95       	icall
	//Settings& settings=Settings::GetInstance();
	char aTime = TCS34725Helper::GetATime(ATIME_MILLISECONDS);
     6a4:	8a e0       	ldi	r24, 0x0A	; 10
     6a6:	90 e0       	ldi	r25, 0x00	; 0
     6a8:	0e 94 65 14 	call	0x28ca	; 0x28ca <_ZN14TCS34725Helper8GetATimeEj>
     6ac:	b8 2e       	mov	r11, r24
	char aGain = TCS34725Helper::GetAGain(DESIRED_GAIN);
     6ae:	81 e0       	ldi	r24, 0x01	; 1
     6b0:	0e 94 81 14 	call	0x2902	; 0x2902 <_ZN14TCS34725Helper8GetAGainEc>
     6b4:	e8 2e       	mov	r14, r24
	TCS34725Helper::Wait wait = TCS34725Helper::CalculatWait(DESIRED_CURRENT_MA, aTime);
     6b6:	6b 2d       	mov	r22, r11
     6b8:	88 ec       	ldi	r24, 0xC8	; 200
     6ba:	90 e0       	ldi	r25, 0x00	; 0
     6bc:	0e 94 90 14 	call	0x2920	; 0x2920 <_ZN14TCS34725Helper12CalculatWaitEjh>
     6c0:	a8 2e       	mov	r10, r24
     6c2:	09 2f       	mov	r16, r25
	TCS34725* tcs34725 = new TCS34725("TCS34725", /*aTime*/ aTime,  /*wTime*/wait.time,   /*wLong*/wait.isLong,  /*aGain*/aGain,  /*aPers*/PERSISTENCE);
     6c4:	80 e2       	ldi	r24, 0x20	; 32
     6c6:	90 e0       	ldi	r25, 0x00	; 0
     6c8:	0e 94 7e 08 	call	0x10fc	; 0x10fc <_Znwj>
     6cc:	4c 01       	movw	r8, r24
     6ce:	0f 2e       	mov	r0, r31
     6d0:	f3 e0       	ldi	r31, 0x03	; 3
     6d2:	cf 2e       	mov	r12, r31
     6d4:	f0 2d       	mov	r31, r0
     6d6:	2a 2d       	mov	r18, r10
     6d8:	4b 2d       	mov	r20, r11
     6da:	6c e1       	ldi	r22, 0x1C	; 28
     6dc:	71 e0       	ldi	r23, 0x01	; 1
     6de:	0e 94 eb 12 	call	0x25d6	; 0x25d6 <_ZN8TCS34725C1EPKchhbhh>
	Sender sender(&uart);
     6e2:	b2 01       	movw	r22, r4
     6e4:	ce 01       	movw	r24, r28
     6e6:	05 96       	adiw	r24, 0x05	; 5
     6e8:	0e 94 89 10 	call	0x2112	; 0x2112 <_ZN6SenderC1EP12ISendMessage>
	SubscriptionRunner subscriptionRunner;
     6ec:	ce 01       	movw	r24, r28
     6ee:	09 96       	adiw	r24, 0x09	; 9
     6f0:	0e 94 56 11 	call	0x22ac	; 0x22ac <_ZN18SubscriptionRunnerC1Ev>
	ColourSensorTCS34725 colourSensor34725(tcs34725, &sender, &subscriptionRunner, leds.GetBacklight());
     6f4:	c3 01       	movw	r24, r6
     6f6:	0e 94 c6 0f 	call	0x1f8c	; 0x1f8c <_ZN4Leds12GetBacklightEv>
     6fa:	8c 01       	movw	r16, r24
     6fc:	9e 01       	movw	r18, r28
     6fe:	27 5f       	subi	r18, 0xF7	; 247
     700:	3f 4f       	sbci	r19, 0xFF	; 255
     702:	ae 01       	movw	r20, r28
     704:	4b 5f       	subi	r20, 0xFB	; 251
     706:	5f 4f       	sbci	r21, 0xFF	; 255
     708:	b4 01       	movw	r22, r8
     70a:	ce 01       	movw	r24, r28
     70c:	41 96       	adiw	r24, 0x11	; 17
     70e:	0e 94 ff 02 	call	0x5fe	; 0x5fe <_ZN20ColourSensorTCS34725C1EP8TCS34725P9ISendRGBCP19ISubscriptionRunnerP4ILed>
	SystemCheck& systemCheck = SystemCheck::GetInstance();
     712:	0e 94 90 11 	call	0x2320	; 0x2320 <_ZN11SystemCheck11GetInstanceEv>
     716:	6c 01       	movw	r12, r24
	//systemCheck.SetInterfaces(&settings);
	ITests* iTests =
	#ifdef DEBUG
	new Tests((ISendMessage*)&uart, (IGetRGBC*)tcs34725);
     718:	86 e0       	ldi	r24, 0x06	; 6
     71a:	90 e0       	ldi	r25, 0x00	; 0
     71c:	0e 94 7e 08 	call	0x10fc	; 0x10fc <_Znwj>
     720:	5c 01       	movw	r10, r24
     722:	a4 01       	movw	r20, r8
     724:	b2 01       	movw	r22, r4
     726:	0e 94 dc 16 	call	0x2db8	; 0x2db8 <_ZN5TestsC1EP12ISendMessageP8IGetRGBC>
	#else
	new NoTests();
	#endif
	Endpoint* endpoint = new Endpoint(&uart, &uart, &sender, &colourSensor34725, &colourSensor34725, &systemCheck, iTests);
     72a:	8e e0       	ldi	r24, 0x0E	; 14
     72c:	90 e0       	ldi	r25, 0x00	; 0
     72e:	0e 94 7e 08 	call	0x10fc	; 0x10fc <_Znwj>
     732:	4c 01       	movw	r8, r24
     734:	b2 01       	movw	r22, r4
     736:	6e 5f       	subi	r22, 0xFE	; 254
     738:	7f 4f       	sbci	r23, 0xFF	; 255
     73a:	ce 01       	movw	r24, r28
     73c:	43 96       	adiw	r24, 0x13	; 19
     73e:	7c 01       	movw	r14, r24
     740:	8e 01       	movw	r16, r28
     742:	0f 5e       	subi	r16, 0xEF	; 239
     744:	1f 4f       	sbci	r17, 0xFF	; 255
     746:	9e 01       	movw	r18, r28
     748:	2b 5f       	subi	r18, 0xFB	; 251
     74a:	3f 4f       	sbci	r19, 0xFF	; 255
     74c:	a2 01       	movw	r20, r4
     74e:	c4 01       	movw	r24, r8
     750:	0e 94 db 03 	call	0x7b6	; 0x7b6 <_ZN8EndpointC1EP12IGetMessagesP12ISendMessageP6SenderP12ISetFastModeP8IGetRGBCP12ISystemCheckP6ITests>
	bool on=false;
     754:	b1 2c       	mov	r11, r1
	while(1)
	{
		if(stopWatch.GetMs()>1000)
		{
			stopWatch.Reset();
			on=!on;
     756:	51 2c       	mov	r5, r1
     758:	11 e0       	ldi	r17, 0x01	; 1
	#endif
	Endpoint* endpoint = new Endpoint(&uart, &uart, &sender, &colourSensor34725, &colourSensor34725, &systemCheck, iTests);
	bool on=false;
	while(1)
	{
		if(stopWatch.GetMs()>1000)
     75a:	ce 01       	movw	r24, r28
     75c:	01 96       	adiw	r24, 0x01	; 1
     75e:	0e 94 58 08 	call	0x10b0	; 0x10b0 <_ZN9Stopwatch5GetMsEv>
     762:	69 3e       	cpi	r22, 0xE9	; 233
     764:	73 40       	sbci	r23, 0x03	; 3
     766:	81 05       	cpc	r24, r1
     768:	91 05       	cpc	r25, r1
     76a:	ec f0       	brlt	.+58     	; 0x7a6 <main+0x170>
		{
			stopWatch.Reset();
     76c:	ce 01       	movw	r24, r28
     76e:	01 96       	adiw	r24, 0x01	; 1
     770:	0e 94 70 08 	call	0x10e0	; 0x10e0 <_ZN9Stopwatch5ResetEv>
			on=!on;
			if(on)
     774:	b1 10       	cpse	r11, r1
     776:	0c c0       	rjmp	.+24     	; 0x790 <main+0x15a>
			leds.GetMain()->TurnOn();
     778:	c3 01       	movw	r24, r6
     77a:	0e 94 ca 0f 	call	0x1f94	; 0x1f94 <_ZN4Leds7GetMainEv>
     77e:	dc 01       	movw	r26, r24
     780:	ed 91       	ld	r30, X+
     782:	fc 91       	ld	r31, X
     784:	01 90       	ld	r0, Z+
     786:	f0 81       	ld	r31, Z
     788:	e0 2d       	mov	r30, r0
     78a:	09 95       	icall
	while(1)
	{
		if(stopWatch.GetMs()>1000)
		{
			stopWatch.Reset();
			on=!on;
     78c:	b1 2e       	mov	r11, r17
     78e:	0b c0       	rjmp	.+22     	; 0x7a6 <main+0x170>
			if(on)
			leds.GetMain()->TurnOn();
			else
			leds.GetMain()->TurnOff();
     790:	c3 01       	movw	r24, r6
     792:	0e 94 ca 0f 	call	0x1f94	; 0x1f94 <_ZN4Leds7GetMainEv>
     796:	dc 01       	movw	r26, r24
     798:	ed 91       	ld	r30, X+
     79a:	fc 91       	ld	r31, X
     79c:	02 80       	ldd	r0, Z+2	; 0x02
     79e:	f3 81       	ldd	r31, Z+3	; 0x03
     7a0:	e0 2d       	mov	r30, r0
     7a2:	09 95       	icall
	while(1)
	{
		if(stopWatch.GetMs()>1000)
		{
			stopWatch.Reset();
			on=!on;
     7a4:	b5 2c       	mov	r11, r5
			if(on)
			leds.GetMain()->TurnOn();
			else
			leds.GetMain()->TurnOff();
		}
		endpoint->Run();
     7a6:	c4 01       	movw	r24, r8
     7a8:	0e 94 b9 05 	call	0xb72	; 0xb72 <_ZN8Endpoint3RunEv>
		subscriptionRunner.Run();
     7ac:	ce 01       	movw	r24, r28
     7ae:	09 96       	adiw	r24, 0x09	; 9
     7b0:	0e 94 62 11 	call	0x22c4	; 0x22c4 <_ZN18SubscriptionRunner3RunEv>
	#else
	new NoTests();
	#endif
	Endpoint* endpoint = new Endpoint(&uart, &uart, &sender, &colourSensor34725, &colourSensor34725, &systemCheck, iTests);
	bool on=false;
	while(1)
     7b4:	d2 cf       	rjmp	.-92     	; 0x75a <main+0x124>

000007b6 <_ZN8EndpointC1EP12IGetMessagesP12ISendMessageP6SenderP12ISetFastModeP8IGetRGBCP12ISystemCheckP6ITests>:
#include "ITests.h"

#include <avr/pgmspace.h>
#include<stdio.h>
#include <string.h>
Endpoint::Endpoint(IGetMessages* iGetMessages, ISendMessage* iSendMessage, Sender* sender, ISetFastMode*iSetFastMode, IGetRGBC*iGetRGBC, ISystemCheck* iSystemCheck , ITests* iTests):iGetMessages(iGetMessages), iSendMessage(iSendMessage), iSetFastMode(iSetFastMode), iGetRGBC (iGetRGBC), iSystemCheck(iSystemCheck), sender(sender) ,  iTests(iTests){
     7b6:	af 92       	push	r10
     7b8:	bf 92       	push	r11
     7ba:	cf 92       	push	r12
     7bc:	df 92       	push	r13
     7be:	ef 92       	push	r14
     7c0:	ff 92       	push	r15
     7c2:	0f 93       	push	r16
     7c4:	1f 93       	push	r17
     7c6:	fc 01       	movw	r30, r24
     7c8:	71 83       	std	Z+1, r23	; 0x01
     7ca:	60 83       	st	Z, r22
     7cc:	53 83       	std	Z+3, r21	; 0x03
     7ce:	42 83       	std	Z+2, r20	; 0x02
     7d0:	d5 82       	std	Z+5, r13	; 0x05
     7d2:	c4 82       	std	Z+4, r12	; 0x04
     7d4:	17 83       	std	Z+7, r17	; 0x07
     7d6:	06 83       	std	Z+6, r16	; 0x06
     7d8:	b1 86       	std	Z+9, r11	; 0x09
     7da:	a0 86       	std	Z+8, r10	; 0x08
     7dc:	f3 86       	std	Z+11, r15	; 0x0b
     7de:	e2 86       	std	Z+10, r14	; 0x0a
     7e0:	35 87       	std	Z+13, r19	; 0x0d
     7e2:	24 87       	std	Z+12, r18	; 0x0c
	
}
     7e4:	1f 91       	pop	r17
     7e6:	0f 91       	pop	r16
     7e8:	ff 90       	pop	r15
     7ea:	ef 90       	pop	r14
     7ec:	df 90       	pop	r13
     7ee:	cf 90       	pop	r12
     7f0:	bf 90       	pop	r11
     7f2:	af 90       	pop	r10
     7f4:	08 95       	ret

000007f6 <_ZN8Endpoint4TestEv>:
		delete messages;
	}
}

void Endpoint::Test()
{
     7f6:	0f 93       	push	r16
     7f8:	1f 93       	push	r17
     7fa:	cf 93       	push	r28
     7fc:	df 93       	push	r29
     7fe:	cd b7       	in	r28, 0x3d	; 61
     800:	de b7       	in	r29, 0x3e	; 62
     802:	61 97       	sbiw	r28, 0x11	; 17
     804:	0f b6       	in	r0, 0x3f	; 63
     806:	f8 94       	cli
     808:	de bf       	out	0x3e, r29	; 62
     80a:	0f be       	out	0x3f, r0	; 63
     80c:	cd bf       	out	0x3d, r28	; 61
     80e:	8c 01       	movw	r16, r24
	char buffer[17];
	strcpy_P(buffer, PSTR("{\"type\":\"test\"}\n"));
     810:	63 ec       	ldi	r22, 0xC3	; 195
     812:	70 e0       	ldi	r23, 0x00	; 0
     814:	ce 01       	movw	r24, r28
     816:	01 96       	adiw	r24, 0x01	; 1
     818:	0e 94 3e 19 	call	0x327c	; 0x327c <strcpy_P>
	iSendMessage->SendMessage(buffer ,16 );
     81c:	d8 01       	movw	r26, r16
     81e:	12 96       	adiw	r26, 0x02	; 2
     820:	8d 91       	ld	r24, X+
     822:	9c 91       	ld	r25, X
     824:	13 97       	sbiw	r26, 0x03	; 3
     826:	dc 01       	movw	r26, r24
     828:	ed 91       	ld	r30, X+
     82a:	fc 91       	ld	r31, X
     82c:	01 90       	ld	r0, Z+
     82e:	f0 81       	ld	r31, Z
     830:	e0 2d       	mov	r30, r0
     832:	40 e1       	ldi	r20, 0x10	; 16
     834:	50 e0       	ldi	r21, 0x00	; 0
     836:	be 01       	movw	r22, r28
     838:	6f 5f       	subi	r22, 0xFF	; 255
     83a:	7f 4f       	sbci	r23, 0xFF	; 255
     83c:	09 95       	icall
}
     83e:	61 96       	adiw	r28, 0x11	; 17
     840:	0f b6       	in	r0, 0x3f	; 63
     842:	f8 94       	cli
     844:	de bf       	out	0x3e, r29	; 62
     846:	0f be       	out	0x3f, r0	; 63
     848:	cd bf       	out	0x3d, r28	; 61
     84a:	df 91       	pop	r29
     84c:	cf 91       	pop	r28
     84e:	1f 91       	pop	r17
     850:	0f 91       	pop	r16
     852:	08 95       	ret

00000854 <_ZN8Endpoint17GetUnitTestsNamesEv>:
void Endpoint::GetUnitTestsNames(){
	iTests->GetTestNames();
     854:	dc 01       	movw	r26, r24
     856:	18 96       	adiw	r26, 0x08	; 8
     858:	8d 91       	ld	r24, X+
     85a:	9c 91       	ld	r25, X
     85c:	19 97       	sbiw	r26, 0x09	; 9
     85e:	dc 01       	movw	r26, r24
     860:	ed 91       	ld	r30, X+
     862:	fc 91       	ld	r31, X
     864:	02 80       	ldd	r0, Z+2	; 0x02
     866:	f3 81       	ldd	r31, Z+3	; 0x03
     868:	e0 2d       	mov	r30, r0
     86a:	09 95       	icall
     86c:	08 95       	ret

0000086e <_ZN8Endpoint13SendExceptionEP9Exception>:
		iSendMessage->SendMessage(buffer, 28);
	}
	else
	SendExceptions(&exceptions);
}
void Endpoint::SendException(Exception* exception){
     86e:	af 92       	push	r10
     870:	bf 92       	push	r11
     872:	cf 92       	push	r12
     874:	df 92       	push	r13
     876:	ef 92       	push	r14
     878:	ff 92       	push	r15
     87a:	0f 93       	push	r16
     87c:	1f 93       	push	r17
     87e:	cf 93       	push	r28
     880:	df 93       	push	r29
     882:	7c 01       	movw	r14, r24
     884:	cb 01       	movw	r24, r22
	const char* message = exception->ToString();
     886:	db 01       	movw	r26, r22
     888:	ed 91       	ld	r30, X+
     88a:	fc 91       	ld	r31, X
     88c:	01 90       	ld	r0, Z+
     88e:	f0 81       	ld	r31, Z
     890:	e0 2d       	mov	r30, r0
     892:	09 95       	icall
     894:	b8 2e       	mov	r11, r24
     896:	a9 2e       	mov	r10, r25
	unsigned int length = strlen(message) + 35;
     898:	e8 2f       	mov	r30, r24
     89a:	f9 2f       	mov	r31, r25
     89c:	df 01       	movw	r26, r30
     89e:	0d 90       	ld	r0, X+
     8a0:	00 20       	and	r0, r0
     8a2:	e9 f7       	brne	.-6      	; 0x89e <_ZN8Endpoint13SendExceptionEP9Exception+0x30>
     8a4:	11 97       	sbiw	r26, 0x01	; 1
     8a6:	8d 01       	movw	r16, r26
     8a8:	0e 1b       	sub	r16, r30
     8aa:	1f 0b       	sbc	r17, r31
     8ac:	68 01       	movw	r12, r16
     8ae:	b3 e2       	ldi	r27, 0x23	; 35
     8b0:	cb 0e       	add	r12, r27
     8b2:	d1 1c       	adc	r13, r1
	char* buf  = (char*) malloc(length);
     8b4:	c6 01       	movw	r24, r12
     8b6:	0e 94 14 18 	call	0x3028	; 0x3028 <malloc>
     8ba:	d8 2f       	mov	r29, r24
     8bc:	c9 2f       	mov	r28, r25
	snprintf_P(buf,length,PSTR("{\"type\":\"exception\",\"message\":\"%s\"}\n"),message);
     8be:	af 92       	push	r10
     8c0:	bf 92       	push	r11
     8c2:	88 e6       	ldi	r24, 0x68	; 104
     8c4:	90 e0       	ldi	r25, 0x00	; 0
     8c6:	9f 93       	push	r25
     8c8:	8f 93       	push	r24
     8ca:	df 92       	push	r13
     8cc:	cf 92       	push	r12
     8ce:	cf 93       	push	r28
     8d0:	df 93       	push	r29
     8d2:	0e 94 60 19 	call	0x32c0	; 0x32c0 <snprintf_P>
	iSendMessage->SendMessage(buf, length-1);
     8d6:	f7 01       	movw	r30, r14
     8d8:	82 81       	ldd	r24, Z+2	; 0x02
     8da:	93 81       	ldd	r25, Z+3	; 0x03
     8dc:	a8 01       	movw	r20, r16
     8de:	4e 5d       	subi	r20, 0xDE	; 222
     8e0:	5f 4f       	sbci	r21, 0xFF	; 255
     8e2:	dc 01       	movw	r26, r24
     8e4:	ed 91       	ld	r30, X+
     8e6:	fc 91       	ld	r31, X
     8e8:	01 90       	ld	r0, Z+
     8ea:	f0 81       	ld	r31, Z
     8ec:	e0 2d       	mov	r30, r0
     8ee:	6d 2f       	mov	r22, r29
     8f0:	7c 2f       	mov	r23, r28
     8f2:	09 95       	icall
	free(buf);
     8f4:	8d 2f       	mov	r24, r29
     8f6:	9c 2f       	mov	r25, r28
     8f8:	0e 94 ac 18 	call	0x3158	; 0x3158 <free>
}
     8fc:	ed b7       	in	r30, 0x3d	; 61
     8fe:	fe b7       	in	r31, 0x3e	; 62
     900:	38 96       	adiw	r30, 0x08	; 8
     902:	0f b6       	in	r0, 0x3f	; 63
     904:	f8 94       	cli
     906:	fe bf       	out	0x3e, r31	; 62
     908:	0f be       	out	0x3f, r0	; 63
     90a:	ed bf       	out	0x3d, r30	; 61
     90c:	df 91       	pop	r29
     90e:	cf 91       	pop	r28
     910:	1f 91       	pop	r17
     912:	0f 91       	pop	r16
     914:	ff 90       	pop	r15
     916:	ef 90       	pop	r14
     918:	df 90       	pop	r13
     91a:	cf 90       	pop	r12
     91c:	bf 90       	pop	r11
     91e:	af 90       	pop	r10
     920:	08 95       	ret

00000922 <_ZN8Endpoint14SendExceptionsEP10Exceptions>:
void Endpoint::SendExceptions(Exceptions* exceptions){
     922:	ef 92       	push	r14
     924:	ff 92       	push	r15
     926:	0f 93       	push	r16
     928:	1f 93       	push	r17
     92a:	cf 93       	push	r28
     92c:	df 93       	push	r29
     92e:	7c 01       	movw	r14, r24
     930:	8b 01       	movw	r16, r22
	for(unsigned int i=0; i<exceptions->Count(); i++){
     932:	c0 e0       	ldi	r28, 0x00	; 0
     934:	d0 e0       	ldi	r29, 0x00	; 0
     936:	c8 01       	movw	r24, r16
     938:	0e 94 71 07 	call	0xee2	; 0xee2 <_ZN10Exceptions5CountEv>
     93c:	c8 17       	cp	r28, r24
     93e:	d9 07       	cpc	r29, r25
     940:	88 f4       	brcc	.+34     	; 0x964 <_ZN8Endpoint14SendExceptionsEP10Exceptions+0x42>
		Exception* exception = exceptions->exceptions[i];
     942:	ce 01       	movw	r24, r28
     944:	88 0f       	add	r24, r24
     946:	99 1f       	adc	r25, r25
     948:	d8 01       	movw	r26, r16
     94a:	14 96       	adiw	r26, 0x04	; 4
     94c:	ed 91       	ld	r30, X+
     94e:	fc 91       	ld	r31, X
     950:	15 97       	sbiw	r26, 0x05	; 5
     952:	e8 0f       	add	r30, r24
     954:	f9 1f       	adc	r31, r25
		SendException(exception);
     956:	60 81       	ld	r22, Z
     958:	71 81       	ldd	r23, Z+1	; 0x01
     95a:	c7 01       	movw	r24, r14
     95c:	0e 94 37 04 	call	0x86e	; 0x86e <_ZN8Endpoint13SendExceptionEP9Exception>
	snprintf_P(buf,length,PSTR("{\"type\":\"exception\",\"message\":\"%s\"}\n"),message);
	iSendMessage->SendMessage(buf, length-1);
	free(buf);
}
void Endpoint::SendExceptions(Exceptions* exceptions){
	for(unsigned int i=0; i<exceptions->Count(); i++){
     960:	21 96       	adiw	r28, 0x01	; 1
     962:	e9 cf       	rjmp	.-46     	; 0x936 <_ZN8Endpoint14SendExceptionsEP10Exceptions+0x14>
		Exception* exception = exceptions->exceptions[i];
		SendException(exception);
	}
}
     964:	df 91       	pop	r29
     966:	cf 91       	pop	r28
     968:	1f 91       	pop	r17
     96a:	0f 91       	pop	r16
     96c:	ff 90       	pop	r15
     96e:	ef 90       	pop	r14
     970:	08 95       	ret

00000972 <_ZN8Endpoint7GetRGBCEv>:
	iSendMessage->SendMessage(buffer ,16 );
}
void Endpoint::GetUnitTestsNames(){
	iTests->GetTestNames();
}
void Endpoint::GetRGBC(){
     972:	0f 93       	push	r16
     974:	1f 93       	push	r17
     976:	cf 93       	push	r28
     978:	df 93       	push	r29
     97a:	cd b7       	in	r28, 0x3d	; 61
     97c:	de b7       	in	r29, 0x3e	; 62
     97e:	2f 97       	sbiw	r28, 0x0f	; 15
     980:	0f b6       	in	r0, 0x3f	; 63
     982:	f8 94       	cli
     984:	de bf       	out	0x3e, r29	; 62
     986:	0f be       	out	0x3f, r0	; 63
     988:	cd bf       	out	0x3d, r28	; 61
     98a:	8c 01       	movw	r16, r24
	bool successful=true;
     98c:	81 e0       	ldi	r24, 0x01	; 1
     98e:	89 83       	std	Y+1, r24	; 0x01
	Exceptions exceptions;
     990:	ce 01       	movw	r24, r28
     992:	02 96       	adiw	r24, 0x02	; 2
     994:	0e 94 1f 07 	call	0xe3e	; 0xe3e <_ZN10ExceptionsC1Ev>
	RGBC rgbc=iGetRGBC->GetRGBC(successful, exceptions);
     998:	d8 01       	movw	r26, r16
     99a:	1a 96       	adiw	r26, 0x0a	; 10
     99c:	8d 91       	ld	r24, X+
     99e:	9c 91       	ld	r25, X
     9a0:	1b 97       	sbiw	r26, 0x0b	; 11
     9a2:	dc 01       	movw	r26, r24
     9a4:	ed 91       	ld	r30, X+
     9a6:	fc 91       	ld	r31, X
     9a8:	01 90       	ld	r0, Z+
     9aa:	f0 81       	ld	r31, Z
     9ac:	e0 2d       	mov	r30, r0
     9ae:	ae 01       	movw	r20, r28
     9b0:	4e 5f       	subi	r20, 0xFE	; 254
     9b2:	5f 4f       	sbci	r21, 0xFF	; 255
     9b4:	be 01       	movw	r22, r28
     9b6:	6f 5f       	subi	r22, 0xFF	; 255
     9b8:	7f 4f       	sbci	r23, 0xFF	; 255
     9ba:	09 95       	icall
     9bc:	28 87       	std	Y+8, r18	; 0x08
     9be:	39 87       	std	Y+9, r19	; 0x09
     9c0:	4a 87       	std	Y+10, r20	; 0x0a
     9c2:	5b 87       	std	Y+11, r21	; 0x0b
     9c4:	6c 87       	std	Y+12, r22	; 0x0c
     9c6:	7d 87       	std	Y+13, r23	; 0x0d
     9c8:	8e 87       	std	Y+14, r24	; 0x0e
     9ca:	9f 87       	std	Y+15, r25	; 0x0f
	if(successful){
     9cc:	89 81       	ldd	r24, Y+1	; 0x01
     9ce:	88 23       	and	r24, r24
     9d0:	99 f0       	breq	.+38     	; 0x9f8 <_ZN8Endpoint7GetRGBCEv+0x86>
		sender->SendRGBC(rgbc);
     9d2:	f8 01       	movw	r30, r16
     9d4:	84 85       	ldd	r24, Z+12	; 0x0c
     9d6:	95 85       	ldd	r25, Z+13	; 0x0d
     9d8:	dc 01       	movw	r26, r24
     9da:	ed 91       	ld	r30, X+
     9dc:	fc 91       	ld	r31, X
     9de:	01 90       	ld	r0, Z+
     9e0:	f0 81       	ld	r31, Z
     9e2:	e0 2d       	mov	r30, r0
     9e4:	02 2f       	mov	r16, r18
     9e6:	13 2f       	mov	r17, r19
     9e8:	24 2f       	mov	r18, r20
     9ea:	35 2f       	mov	r19, r21
     9ec:	46 2f       	mov	r20, r22
     9ee:	57 2f       	mov	r21, r23
     9f0:	6e 85       	ldd	r22, Y+14	; 0x0e
     9f2:	7f 85       	ldd	r23, Y+15	; 0x0f
     9f4:	09 95       	icall
     9f6:	06 c0       	rjmp	.+12     	; 0xa04 <_ZN8Endpoint7GetRGBCEv+0x92>
	}
	else
	SendExceptions(&exceptions);
     9f8:	be 01       	movw	r22, r28
     9fa:	6e 5f       	subi	r22, 0xFE	; 254
     9fc:	7f 4f       	sbci	r23, 0xFF	; 255
     9fe:	c8 01       	movw	r24, r16
     a00:	0e 94 91 04 	call	0x922	; 0x922 <_ZN8Endpoint14SendExceptionsEP10Exceptions>
void Endpoint::GetUnitTestsNames(){
	iTests->GetTestNames();
}
void Endpoint::GetRGBC(){
	bool successful=true;
	Exceptions exceptions;
     a04:	ce 01       	movw	r24, r28
     a06:	02 96       	adiw	r24, 0x02	; 2
     a08:	0e 94 75 07 	call	0xeea	; 0xeea <_ZN10ExceptionsD1Ev>
	if(successful){
		sender->SendRGBC(rgbc);
	}
	else
	SendExceptions(&exceptions);
}
     a0c:	2f 96       	adiw	r28, 0x0f	; 15
     a0e:	0f b6       	in	r0, 0x3f	; 63
     a10:	f8 94       	cli
     a12:	de bf       	out	0x3e, r29	; 62
     a14:	0f be       	out	0x3f, r0	; 63
     a16:	cd bf       	out	0x3d, r28	; 61
     a18:	df 91       	pop	r29
     a1a:	cf 91       	pop	r28
     a1c:	1f 91       	pop	r17
     a1e:	0f 91       	pop	r16
     a20:	08 95       	ret

00000a22 <_ZN8Endpoint14EnableFastModeEv>:

void Endpoint::EnableFastMode(){
     a22:	0f 93       	push	r16
     a24:	1f 93       	push	r17
     a26:	cf 93       	push	r28
     a28:	df 93       	push	r29
     a2a:	cd b7       	in	r28, 0x3d	; 61
     a2c:	de b7       	in	r29, 0x3e	; 62
     a2e:	a0 97       	sbiw	r28, 0x20	; 32
     a30:	0f b6       	in	r0, 0x3f	; 63
     a32:	f8 94       	cli
     a34:	de bf       	out	0x3e, r29	; 62
     a36:	0f be       	out	0x3f, r0	; 63
     a38:	cd bf       	out	0x3d, r28	; 61
     a3a:	8c 01       	movw	r16, r24
	bool successful=true;
     a3c:	81 e0       	ldi	r24, 0x01	; 1
     a3e:	89 83       	std	Y+1, r24	; 0x01
	Exceptions exceptions;
     a40:	ce 01       	movw	r24, r28
     a42:	02 96       	adiw	r24, 0x02	; 2
     a44:	0e 94 1f 07 	call	0xe3e	; 0xe3e <_ZN10ExceptionsC1Ev>
	
	iSetFastMode->SetFastMode(true, successful, exceptions);
     a48:	d8 01       	movw	r26, r16
     a4a:	16 96       	adiw	r26, 0x06	; 6
     a4c:	8d 91       	ld	r24, X+
     a4e:	9c 91       	ld	r25, X
     a50:	17 97       	sbiw	r26, 0x07	; 7
     a52:	dc 01       	movw	r26, r24
     a54:	ed 91       	ld	r30, X+
     a56:	fc 91       	ld	r31, X
     a58:	01 90       	ld	r0, Z+
     a5a:	f0 81       	ld	r31, Z
     a5c:	e0 2d       	mov	r30, r0
     a5e:	9e 01       	movw	r18, r28
     a60:	2e 5f       	subi	r18, 0xFE	; 254
     a62:	3f 4f       	sbci	r19, 0xFF	; 255
     a64:	ae 01       	movw	r20, r28
     a66:	4f 5f       	subi	r20, 0xFF	; 255
     a68:	5f 4f       	sbci	r21, 0xFF	; 255
     a6a:	61 e0       	ldi	r22, 0x01	; 1
     a6c:	09 95       	icall
	if(successful){
     a6e:	89 81       	ldd	r24, Y+1	; 0x01
     a70:	88 23       	and	r24, r24
     a72:	b1 f0       	breq	.+44     	; 0xaa0 <_ZN8Endpoint14EnableFastModeEv+0x7e>
		
		char buffer[25];
		strcpy_P(buffer, PSTR("{\"type\":\"in_fast_mode\"}\n"));
     a74:	6a ea       	ldi	r22, 0xAA	; 170
     a76:	70 e0       	ldi	r23, 0x00	; 0
     a78:	ce 01       	movw	r24, r28
     a7a:	08 96       	adiw	r24, 0x08	; 8
     a7c:	0e 94 3e 19 	call	0x327c	; 0x327c <strcpy_P>
		iSendMessage->SendMessage(buffer, 24);
     a80:	f8 01       	movw	r30, r16
     a82:	82 81       	ldd	r24, Z+2	; 0x02
     a84:	93 81       	ldd	r25, Z+3	; 0x03
     a86:	dc 01       	movw	r26, r24
     a88:	ed 91       	ld	r30, X+
     a8a:	fc 91       	ld	r31, X
     a8c:	01 90       	ld	r0, Z+
     a8e:	f0 81       	ld	r31, Z
     a90:	e0 2d       	mov	r30, r0
     a92:	48 e1       	ldi	r20, 0x18	; 24
     a94:	50 e0       	ldi	r21, 0x00	; 0
     a96:	be 01       	movw	r22, r28
     a98:	68 5f       	subi	r22, 0xF8	; 248
     a9a:	7f 4f       	sbci	r23, 0xFF	; 255
     a9c:	09 95       	icall
     a9e:	06 c0       	rjmp	.+12     	; 0xaac <_ZN8Endpoint14EnableFastModeEv+0x8a>
	}
	else
	SendExceptions(&exceptions);
     aa0:	be 01       	movw	r22, r28
     aa2:	6e 5f       	subi	r22, 0xFE	; 254
     aa4:	7f 4f       	sbci	r23, 0xFF	; 255
     aa6:	c8 01       	movw	r24, r16
     aa8:	0e 94 91 04 	call	0x922	; 0x922 <_ZN8Endpoint14SendExceptionsEP10Exceptions>
	SendExceptions(&exceptions);
}

void Endpoint::EnableFastMode(){
	bool successful=true;
	Exceptions exceptions;
     aac:	ce 01       	movw	r24, r28
     aae:	02 96       	adiw	r24, 0x02	; 2
     ab0:	0e 94 75 07 	call	0xeea	; 0xeea <_ZN10ExceptionsD1Ev>
		strcpy_P(buffer, PSTR("{\"type\":\"in_fast_mode\"}\n"));
		iSendMessage->SendMessage(buffer, 24);
	}
	else
	SendExceptions(&exceptions);
}
     ab4:	a0 96       	adiw	r28, 0x20	; 32
     ab6:	0f b6       	in	r0, 0x3f	; 63
     ab8:	f8 94       	cli
     aba:	de bf       	out	0x3e, r29	; 62
     abc:	0f be       	out	0x3f, r0	; 63
     abe:	cd bf       	out	0x3d, r28	; 61
     ac0:	df 91       	pop	r29
     ac2:	cf 91       	pop	r28
     ac4:	1f 91       	pop	r17
     ac6:	0f 91       	pop	r16
     ac8:	08 95       	ret

00000aca <_ZN8Endpoint16DissableFastModeEv>:
void Endpoint::DissableFastMode(){
     aca:	0f 93       	push	r16
     acc:	1f 93       	push	r17
     ace:	cf 93       	push	r28
     ad0:	df 93       	push	r29
     ad2:	cd b7       	in	r28, 0x3d	; 61
     ad4:	de b7       	in	r29, 0x3e	; 62
     ad6:	a4 97       	sbiw	r28, 0x24	; 36
     ad8:	0f b6       	in	r0, 0x3f	; 63
     ada:	f8 94       	cli
     adc:	de bf       	out	0x3e, r29	; 62
     ade:	0f be       	out	0x3f, r0	; 63
     ae0:	cd bf       	out	0x3d, r28	; 61
     ae2:	8c 01       	movw	r16, r24
	bool successful=true;
     ae4:	81 e0       	ldi	r24, 0x01	; 1
     ae6:	89 83       	std	Y+1, r24	; 0x01
	Exceptions exceptions;
     ae8:	ce 01       	movw	r24, r28
     aea:	02 96       	adiw	r24, 0x02	; 2
     aec:	0e 94 1f 07 	call	0xe3e	; 0xe3e <_ZN10ExceptionsC1Ev>
	
	iSetFastMode->SetFastMode(false, successful, exceptions);
     af0:	d8 01       	movw	r26, r16
     af2:	16 96       	adiw	r26, 0x06	; 6
     af4:	8d 91       	ld	r24, X+
     af6:	9c 91       	ld	r25, X
     af8:	17 97       	sbiw	r26, 0x07	; 7
     afa:	dc 01       	movw	r26, r24
     afc:	ed 91       	ld	r30, X+
     afe:	fc 91       	ld	r31, X
     b00:	01 90       	ld	r0, Z+
     b02:	f0 81       	ld	r31, Z
     b04:	e0 2d       	mov	r30, r0
     b06:	9e 01       	movw	r18, r28
     b08:	2e 5f       	subi	r18, 0xFE	; 254
     b0a:	3f 4f       	sbci	r19, 0xFF	; 255
     b0c:	ae 01       	movw	r20, r28
     b0e:	4f 5f       	subi	r20, 0xFF	; 255
     b10:	5f 4f       	sbci	r21, 0xFF	; 255
     b12:	60 e0       	ldi	r22, 0x00	; 0
     b14:	09 95       	icall
	if(successful){
     b16:	89 81       	ldd	r24, Y+1	; 0x01
     b18:	88 23       	and	r24, r24
     b1a:	b1 f0       	breq	.+44     	; 0xb48 <_ZN8Endpoint16DissableFastModeEv+0x7e>
		
		char buffer[29];
		strcpy_P(buffer, PSTR("{\"type\":\"not_in_fast_mode\"}\n"));
     b1c:	6d e8       	ldi	r22, 0x8D	; 141
     b1e:	70 e0       	ldi	r23, 0x00	; 0
     b20:	ce 01       	movw	r24, r28
     b22:	08 96       	adiw	r24, 0x08	; 8
     b24:	0e 94 3e 19 	call	0x327c	; 0x327c <strcpy_P>
		iSendMessage->SendMessage(buffer, 28);
     b28:	f8 01       	movw	r30, r16
     b2a:	82 81       	ldd	r24, Z+2	; 0x02
     b2c:	93 81       	ldd	r25, Z+3	; 0x03
     b2e:	dc 01       	movw	r26, r24
     b30:	ed 91       	ld	r30, X+
     b32:	fc 91       	ld	r31, X
     b34:	01 90       	ld	r0, Z+
     b36:	f0 81       	ld	r31, Z
     b38:	e0 2d       	mov	r30, r0
     b3a:	4c e1       	ldi	r20, 0x1C	; 28
     b3c:	50 e0       	ldi	r21, 0x00	; 0
     b3e:	be 01       	movw	r22, r28
     b40:	68 5f       	subi	r22, 0xF8	; 248
     b42:	7f 4f       	sbci	r23, 0xFF	; 255
     b44:	09 95       	icall
     b46:	06 c0       	rjmp	.+12     	; 0xb54 <_ZN8Endpoint16DissableFastModeEv+0x8a>
	}
	else
	SendExceptions(&exceptions);
     b48:	be 01       	movw	r22, r28
     b4a:	6e 5f       	subi	r22, 0xFE	; 254
     b4c:	7f 4f       	sbci	r23, 0xFF	; 255
     b4e:	c8 01       	movw	r24, r16
     b50:	0e 94 91 04 	call	0x922	; 0x922 <_ZN8Endpoint14SendExceptionsEP10Exceptions>
	else
	SendExceptions(&exceptions);
}
void Endpoint::DissableFastMode(){
	bool successful=true;
	Exceptions exceptions;
     b54:	ce 01       	movw	r24, r28
     b56:	02 96       	adiw	r24, 0x02	; 2
     b58:	0e 94 75 07 	call	0xeea	; 0xeea <_ZN10ExceptionsD1Ev>
		strcpy_P(buffer, PSTR("{\"type\":\"not_in_fast_mode\"}\n"));
		iSendMessage->SendMessage(buffer, 28);
	}
	else
	SendExceptions(&exceptions);
}
     b5c:	a4 96       	adiw	r28, 0x24	; 36
     b5e:	0f b6       	in	r0, 0x3f	; 63
     b60:	f8 94       	cli
     b62:	de bf       	out	0x3e, r29	; 62
     b64:	0f be       	out	0x3f, r0	; 63
     b66:	cd bf       	out	0x3d, r28	; 61
     b68:	df 91       	pop	r29
     b6a:	cf 91       	pop	r28
     b6c:	1f 91       	pop	r17
     b6e:	0f 91       	pop	r16
     b70:	08 95       	ret

00000b72 <_ZN8Endpoint3RunEv>:
#include<stdio.h>
#include <string.h>
Endpoint::Endpoint(IGetMessages* iGetMessages, ISendMessage* iSendMessage, Sender* sender, ISetFastMode*iSetFastMode, IGetRGBC*iGetRGBC, ISystemCheck* iSystemCheck , ITests* iTests):iGetMessages(iGetMessages), iSendMessage(iSendMessage), iSetFastMode(iSetFastMode), iGetRGBC (iGetRGBC), iSystemCheck(iSystemCheck), sender(sender) ,  iTests(iTests){
	
}
void Endpoint::Run(){
     b72:	8f 92       	push	r8
     b74:	9f 92       	push	r9
     b76:	bf 92       	push	r11
     b78:	cf 92       	push	r12
     b7a:	df 92       	push	r13
     b7c:	ef 92       	push	r14
     b7e:	ff 92       	push	r15
     b80:	0f 93       	push	r16
     b82:	1f 93       	push	r17
     b84:	cf 93       	push	r28
     b86:	df 93       	push	r29
     b88:	cd b7       	in	r28, 0x3d	; 61
     b8a:	de b7       	in	r29, 0x3e	; 62
     b8c:	c7 5c       	subi	r28, 0xC7	; 199
     b8e:	d1 40       	sbci	r29, 0x01	; 1
     b90:	0f b6       	in	r0, 0x3f	; 63
     b92:	f8 94       	cli
     b94:	de bf       	out	0x3e, r29	; 62
     b96:	0f be       	out	0x3f, r0	; 63
     b98:	cd bf       	out	0x3d, r28	; 61
     b9a:	6c 01       	movw	r12, r24
	Messages* messages = iGetMessages->GetMessages();
     b9c:	dc 01       	movw	r26, r24
     b9e:	8d 91       	ld	r24, X+
     ba0:	9c 91       	ld	r25, X
     ba2:	dc 01       	movw	r26, r24
     ba4:	ed 91       	ld	r30, X+
     ba6:	fc 91       	ld	r31, X
     ba8:	01 90       	ld	r0, Z+
     baa:	f0 81       	ld	r31, Z
     bac:	e0 2d       	mov	r30, r0
     bae:	09 95       	icall
     bb0:	7c 01       	movw	r14, r24
	if(messages!=NULL){
     bb2:	00 97       	sbiw	r24, 0x00	; 0
     bb4:	09 f4       	brne	.+2      	; 0xbb8 <_ZN8Endpoint3RunEv+0x46>
     bb6:	9b c0       	rjmp	.+310    	; 0xcee <_ZN8Endpoint3RunEv+0x17c>
		if(messages->length>0)
     bb8:	fc 01       	movw	r30, r24
     bba:	82 81       	ldd	r24, Z+2	; 0x02
     bbc:	93 81       	ldd	r25, Z+3	; 0x03
     bbe:	18 16       	cp	r1, r24
     bc0:	19 06       	cpc	r1, r25
     bc2:	0c f0       	brlt	.+2      	; 0xbc6 <_ZN8Endpoint3RunEv+0x54>
     bc4:	8e c0       	rjmp	.+284    	; 0xce2 <_ZN8Endpoint3RunEv+0x170>
     bc6:	00 e0       	ldi	r16, 0x00	; 0
     bc8:	10 e0       	ldi	r17, 0x00	; 0
						}
						else
						if(strcmp_P(type,PSTR("unit_tests"))==0){
							
							Exceptions exceptions;
							bool successful=true;
     bca:	bb 24       	eor	r11, r11
     bcc:	b3 94       	inc	r11
	Messages* messages = iGetMessages->GetMessages();
	if(messages!=NULL){
		if(messages->length>0)
		{
			for(int i=0; i<messages->length; i++){
				Message* message = messages->messages[i];
     bce:	d7 01       	movw	r26, r14
     bd0:	ed 91       	ld	r30, X+
     bd2:	fc 91       	ld	r31, X
     bd4:	c8 01       	movw	r24, r16
     bd6:	88 0f       	add	r24, r24
     bd8:	99 1f       	adc	r25, r25
     bda:	e8 0f       	add	r30, r24
     bdc:	f9 1f       	adc	r31, r25
     bde:	01 90       	ld	r0, Z+
     be0:	f0 81       	ld	r31, Z
     be2:	e0 2d       	mov	r30, r0
				json_t pool[64];
				json_t const* root = json_create( (char*)message->buffer, pool, message->length );
     be4:	42 81       	ldd	r20, Z+2	; 0x02
     be6:	53 81       	ldd	r21, Z+3	; 0x03
     be8:	be 01       	movw	r22, r28
     bea:	6f 5f       	subi	r22, 0xFF	; 255
     bec:	7f 4f       	sbci	r23, 0xFF	; 255
     bee:	80 81       	ld	r24, Z
     bf0:	91 81       	ldd	r25, Z+1	; 0x01
     bf2:	0e 94 30 0b 	call	0x1660	; 0x1660 <json_create>
				json_t const* jObjectType = json_getProperty( root, "type" );
     bf6:	65 e2       	ldi	r22, 0x25	; 37
     bf8:	71 e0       	ldi	r23, 0x01	; 1
     bfa:	0e 94 0b 0b 	call	0x1616	; 0x1616 <json_getProperty>
				if ( jObjectType && JSON_TEXT == json_getType(  jObjectType ) ) {
     bfe:	00 97       	sbiw	r24, 0x00	; 0
     c00:	09 f4       	brne	.+2      	; 0xc04 <_ZN8Endpoint3RunEv+0x92>
     c02:	66 c0       	rjmp	.+204    	; 0xcd0 <_ZN8Endpoint3RunEv+0x15e>
     c04:	fc 01       	movw	r30, r24
     c06:	26 81       	ldd	r18, Z+6	; 0x06
     c08:	22 30       	cpi	r18, 0x02	; 2
     c0a:	09 f0       	breq	.+2      	; 0xc0e <_ZN8Endpoint3RunEv+0x9c>
     c0c:	61 c0       	rjmp	.+194    	; 0xcd0 <_ZN8Endpoint3RunEv+0x15e>
/** Get the value of a json property.
  * The type of property cannot be JSON_OBJ or JSON_ARRAY.
  * @param json A valid handler of a json property.
  * @return Pointer to null-terminated string with the value. */
static inline char const* json_getValue( json_t const* property ) {
    return property->u.value;
     c0e:	84 80       	ldd	r8, Z+4	; 0x04
     c10:	95 80       	ldd	r9, Z+5	; 0x05
					const char* type = json_getValue(jObjectType);
					if(strcmp_P(type,PSTR("enable_fast_mode"))==0){
     c12:	65 e1       	ldi	r22, 0x15	; 21
     c14:	71 e0       	ldi	r23, 0x01	; 1
     c16:	c4 01       	movw	r24, r8
     c18:	0e 94 35 19 	call	0x326a	; 0x326a <strcmp_P>
     c1c:	89 2b       	or	r24, r25
     c1e:	21 f4       	brne	.+8      	; 0xc28 <_ZN8Endpoint3RunEv+0xb6>
						EnableFastMode();
     c20:	c6 01       	movw	r24, r12
     c22:	0e 94 11 05 	call	0xa22	; 0xa22 <_ZN8Endpoint14EnableFastModeEv>
     c26:	54 c0       	rjmp	.+168    	; 0xcd0 <_ZN8Endpoint3RunEv+0x15e>
						}else{
						if(strcmp_P(type,PSTR("dissable_fast_mode"))==0){
     c28:	62 e0       	ldi	r22, 0x02	; 2
     c2a:	71 e0       	ldi	r23, 0x01	; 1
     c2c:	c4 01       	movw	r24, r8
     c2e:	0e 94 35 19 	call	0x326a	; 0x326a <strcmp_P>
     c32:	89 2b       	or	r24, r25
     c34:	21 f4       	brne	.+8      	; 0xc3e <_ZN8Endpoint3RunEv+0xcc>
							DissableFastMode();
     c36:	c6 01       	movw	r24, r12
     c38:	0e 94 65 05 	call	0xaca	; 0xaca <_ZN8Endpoint16DissableFastModeEv>
     c3c:	49 c0       	rjmp	.+146    	; 0xcd0 <_ZN8Endpoint3RunEv+0x15e>
						}else
						if(strcmp_P(type,PSTR("get_rgbc"))==0){
     c3e:	69 ef       	ldi	r22, 0xF9	; 249
     c40:	70 e0       	ldi	r23, 0x00	; 0
     c42:	c4 01       	movw	r24, r8
     c44:	0e 94 35 19 	call	0x326a	; 0x326a <strcmp_P>
     c48:	89 2b       	or	r24, r25
     c4a:	21 f4       	brne	.+8      	; 0xc54 <_ZN8Endpoint3RunEv+0xe2>
							GetRGBC();
     c4c:	c6 01       	movw	r24, r12
     c4e:	0e 94 b9 04 	call	0x972	; 0x972 <_ZN8Endpoint7GetRGBCEv>
     c52:	3e c0       	rjmp	.+124    	; 0xcd0 <_ZN8Endpoint3RunEv+0x15e>
						}
						else
						if(strcmp_P(type,PSTR("test"))==0){
     c54:	64 ef       	ldi	r22, 0xF4	; 244
     c56:	70 e0       	ldi	r23, 0x00	; 0
     c58:	c4 01       	movw	r24, r8
     c5a:	0e 94 35 19 	call	0x326a	; 0x326a <strcmp_P>
     c5e:	89 2b       	or	r24, r25
     c60:	21 f4       	brne	.+8      	; 0xc6a <_ZN8Endpoint3RunEv+0xf8>
							Test();
     c62:	c6 01       	movw	r24, r12
     c64:	0e 94 fb 03 	call	0x7f6	; 0x7f6 <_ZN8Endpoint4TestEv>
     c68:	33 c0       	rjmp	.+102    	; 0xcd0 <_ZN8Endpoint3RunEv+0x15e>
						}
						else
						if(strcmp_P(type,PSTR("get_unit_tests_names"))==0){
     c6a:	6f ed       	ldi	r22, 0xDF	; 223
     c6c:	70 e0       	ldi	r23, 0x00	; 0
     c6e:	c4 01       	movw	r24, r8
     c70:	0e 94 35 19 	call	0x326a	; 0x326a <strcmp_P>
     c74:	89 2b       	or	r24, r25
     c76:	21 f4       	brne	.+8      	; 0xc80 <_ZN8Endpoint3RunEv+0x10e>
							GetUnitTestsNames();
     c78:	c6 01       	movw	r24, r12
     c7a:	0e 94 2a 04 	call	0x854	; 0x854 <_ZN8Endpoint17GetUnitTestsNamesEv>
     c7e:	28 c0       	rjmp	.+80     	; 0xcd0 <_ZN8Endpoint3RunEv+0x15e>
						}
						else
						if(strcmp_P(type,PSTR("unit_tests"))==0){
     c80:	64 ed       	ldi	r22, 0xD4	; 212
     c82:	70 e0       	ldi	r23, 0x00	; 0
     c84:	c4 01       	movw	r24, r8
     c86:	0e 94 35 19 	call	0x326a	; 0x326a <strcmp_P>
     c8a:	89 2b       	or	r24, r25
     c8c:	09 f5       	brne	.+66     	; 0xcd0 <_ZN8Endpoint3RunEv+0x15e>
							
							Exceptions exceptions;
     c8e:	ce 01       	movw	r24, r28
     c90:	8f 53       	subi	r24, 0x3F	; 63
     c92:	9e 4f       	sbci	r25, 0xFE	; 254
     c94:	0e 94 1f 07 	call	0xe3e	; 0xe3e <_ZN10ExceptionsC1Ev>
							bool successful=true;
     c98:	c9 53       	subi	r28, 0x39	; 57
     c9a:	de 4f       	sbci	r29, 0xFE	; 254
     c9c:	b8 82       	st	Y, r11
     c9e:	c7 5c       	subi	r28, 0xC7	; 199
     ca0:	d1 40       	sbci	r29, 0x01	; 1
							iTests->DoTests(successful, exceptions);
     ca2:	d6 01       	movw	r26, r12
     ca4:	18 96       	adiw	r26, 0x08	; 8
     ca6:	8d 91       	ld	r24, X+
     ca8:	9c 91       	ld	r25, X
     caa:	19 97       	sbiw	r26, 0x09	; 9
     cac:	dc 01       	movw	r26, r24
     cae:	ed 91       	ld	r30, X+
     cb0:	fc 91       	ld	r31, X
     cb2:	01 90       	ld	r0, Z+
     cb4:	f0 81       	ld	r31, Z
     cb6:	e0 2d       	mov	r30, r0
     cb8:	ae 01       	movw	r20, r28
     cba:	4f 53       	subi	r20, 0x3F	; 63
     cbc:	5e 4f       	sbci	r21, 0xFE	; 254
     cbe:	be 01       	movw	r22, r28
     cc0:	69 53       	subi	r22, 0x39	; 57
     cc2:	7e 4f       	sbci	r23, 0xFE	; 254
     cc4:	09 95       	icall
							GetUnitTestsNames();
						}
						else
						if(strcmp_P(type,PSTR("unit_tests"))==0){
							
							Exceptions exceptions;
     cc6:	ce 01       	movw	r24, r28
     cc8:	8f 53       	subi	r24, 0x3F	; 63
     cca:	9e 4f       	sbci	r25, 0xFE	; 254
     ccc:	0e 94 75 07 	call	0xeea	; 0xeea <_ZN10ExceptionsD1Ev>
void Endpoint::Run(){
	Messages* messages = iGetMessages->GetMessages();
	if(messages!=NULL){
		if(messages->length>0)
		{
			for(int i=0; i<messages->length; i++){
     cd0:	0f 5f       	subi	r16, 0xFF	; 255
     cd2:	1f 4f       	sbci	r17, 0xFF	; 255
     cd4:	f7 01       	movw	r30, r14
     cd6:	82 81       	ldd	r24, Z+2	; 0x02
     cd8:	93 81       	ldd	r25, Z+3	; 0x03
     cda:	08 17       	cp	r16, r24
     cdc:	19 07       	cpc	r17, r25
     cde:	0c f4       	brge	.+2      	; 0xce2 <_ZN8Endpoint3RunEv+0x170>
     ce0:	76 cf       	rjmp	.-276    	; 0xbce <_ZN8Endpoint3RunEv+0x5c>
						}
					}
				}
			}
		}
		delete messages;
     ce2:	c7 01       	movw	r24, r14
     ce4:	0e 94 ed 07 	call	0xfda	; 0xfda <_ZN8MessagesD1Ev>
     ce8:	c7 01       	movw	r24, r14
     cea:	0e 94 84 08 	call	0x1108	; 0x1108 <_ZdlPv>
	}
}
     cee:	c9 53       	subi	r28, 0x39	; 57
     cf0:	de 4f       	sbci	r29, 0xFE	; 254
     cf2:	0f b6       	in	r0, 0x3f	; 63
     cf4:	f8 94       	cli
     cf6:	de bf       	out	0x3e, r29	; 62
     cf8:	0f be       	out	0x3f, r0	; 63
     cfa:	cd bf       	out	0x3d, r28	; 61
     cfc:	df 91       	pop	r29
     cfe:	cf 91       	pop	r28
     d00:	1f 91       	pop	r17
     d02:	0f 91       	pop	r16
     d04:	ff 90       	pop	r15
     d06:	ef 90       	pop	r14
     d08:	df 90       	pop	r13
     d0a:	cf 90       	pop	r12
     d0c:	bf 90       	pop	r11
     d0e:	9f 90       	pop	r9
     d10:	8f 90       	pop	r8
     d12:	08 95       	ret

00000d14 <_ZN6Assert12SendResponseEbPKcS1_P12ISendMessage>:
{
	SendResponse(passed, exception, nameP, iSendMessage);
	return !passed;
}

void Assert::SendResponse(bool passed, const char* exception, const char* nameP, ISendMessage*iSendMessage){
     d14:	cf 92       	push	r12
     d16:	df 92       	push	r13
     d18:	ff 92       	push	r15
     d1a:	0f 93       	push	r16
     d1c:	1f 93       	push	r17
     d1e:	cf 93       	push	r28
     d20:	df 93       	push	r29
     d22:	f8 2e       	mov	r15, r24
     d24:	8b 01       	movw	r16, r22
     d26:	6a 01       	movw	r12, r20
     d28:	e9 01       	movw	r28, r18
	PHelper::SendP(PSTR("{\"type\":\"unit_test\",\"name\":\""), iSendMessage);
     d2a:	b9 01       	movw	r22, r18
     d2c:	8b e5       	ldi	r24, 0x5B	; 91
     d2e:	91 e0       	ldi	r25, 0x01	; 1
     d30:	0e 94 68 02 	call	0x4d0	; 0x4d0 <_ZN7PHelper5SendPEPKcP12ISendMessage>
		PHelper::SendP(nameP, iSendMessage);
     d34:	be 01       	movw	r22, r28
     d36:	c6 01       	movw	r24, r12
     d38:	0e 94 68 02 	call	0x4d0	; 0x4d0 <_ZN7PHelper5SendPEPKcP12ISendMessage>
		if(passed)
     d3c:	ff 20       	and	r15, r15
     d3e:	31 f0       	breq	.+12     	; 0xd4c <_ZN6Assert12SendResponseEbPKcS1_P12ISendMessage+0x38>
		{
		PHelper::SendP(PSTR("\",\"passed\":true}\n"), iSendMessage);
     d40:	be 01       	movw	r22, r28
     d42:	89 e4       	ldi	r24, 0x49	; 73
     d44:	91 e0       	ldi	r25, 0x01	; 1
     d46:	0e 94 68 02 	call	0x4d0	; 0x4d0 <_ZN7PHelper5SendPEPKcP12ISendMessage>
     d4a:	1a c0       	rjmp	.+52     	; 0xd80 <_ZN6Assert12SendResponseEbPKcS1_P12ISendMessage+0x6c>
	}
	else
	{
		PHelper::SendP(PSTR("\",\"exception\":\""), iSendMessage);
     d4c:	be 01       	movw	r22, r28
     d4e:	89 e3       	ldi	r24, 0x39	; 57
     d50:	91 e0       	ldi	r25, 0x01	; 1
     d52:	0e 94 68 02 	call	0x4d0	; 0x4d0 <_ZN7PHelper5SendPEPKcP12ISendMessage>
		iSendMessage->SendMessage(exception, strlen(exception));
     d56:	f8 01       	movw	r30, r16
     d58:	01 90       	ld	r0, Z+
     d5a:	00 20       	and	r0, r0
     d5c:	e9 f7       	brne	.-6      	; 0xd58 <_ZN6Assert12SendResponseEbPKcS1_P12ISendMessage+0x44>
     d5e:	31 97       	sbiw	r30, 0x01	; 1
     d60:	af 01       	movw	r20, r30
     d62:	40 1b       	sub	r20, r16
     d64:	51 0b       	sbc	r21, r17
     d66:	e8 81       	ld	r30, Y
     d68:	f9 81       	ldd	r31, Y+1	; 0x01
     d6a:	01 90       	ld	r0, Z+
     d6c:	f0 81       	ld	r31, Z
     d6e:	e0 2d       	mov	r30, r0
     d70:	b8 01       	movw	r22, r16
     d72:	ce 01       	movw	r24, r28
     d74:	09 95       	icall
	PHelper::SendP(PSTR("\",\"passed\":false}\n"), iSendMessage);
     d76:	be 01       	movw	r22, r28
     d78:	86 e2       	ldi	r24, 0x26	; 38
     d7a:	91 e0       	ldi	r25, 0x01	; 1
     d7c:	0e 94 68 02 	call	0x4d0	; 0x4d0 <_ZN7PHelper5SendPEPKcP12ISendMessage>
}
}
     d80:	df 91       	pop	r29
     d82:	cf 91       	pop	r28
     d84:	1f 91       	pop	r17
     d86:	0f 91       	pop	r16
     d88:	ff 90       	pop	r15
     d8a:	df 90       	pop	r13
     d8c:	cf 90       	pop	r12
     d8e:	08 95       	ret

00000d90 <_ZN6Assert6IsTrueEbPKcS1_P12ISendMessage>:
#include <stdio.h>
#include <string.h>
#include<avr/pgmspace.h>
#include "PHelper.h"
bool Assert::IsTrue(bool passed, const char* nameP,  const char* exception, ISendMessage* iSendMessage)
{
     d90:	cf 93       	push	r28
     d92:	c8 2f       	mov	r28, r24
     d94:	ca 01       	movw	r24, r20
	SendResponse(passed, exception, nameP, iSendMessage);
     d96:	ab 01       	movw	r20, r22
     d98:	bc 01       	movw	r22, r24
     d9a:	8c 2f       	mov	r24, r28
     d9c:	0e 94 8a 06 	call	0xd14	; 0xd14 <_ZN6Assert12SendResponseEbPKcS1_P12ISendMessage>
	return !passed;
}
     da0:	81 e0       	ldi	r24, 0x01	; 1
     da2:	8c 27       	eor	r24, r28
     da4:	cf 91       	pop	r28
     da6:	08 95       	ret

00000da8 <_ZN6Assert20DoesntThrowExceptionER10ExceptionsPKcP12ISendMessage>:
		PHelper::SendP(PSTR("\",\"exception\":\""), iSendMessage);
		iSendMessage->SendMessage(exception, strlen(exception));
	PHelper::SendP(PSTR("\",\"passed\":false}\n"), iSendMessage);
}
}
bool Assert::DoesntThrowException(Exceptions& exceptions, const char* nameP , ISendMessage* iSendMessage){
     da8:	cf 92       	push	r12
     daa:	df 92       	push	r13
     dac:	ef 92       	push	r14
     dae:	ff 92       	push	r15
     db0:	1f 93       	push	r17
     db2:	cf 93       	push	r28
     db4:	df 93       	push	r29
     db6:	ec 01       	movw	r28, r24
     db8:	7b 01       	movw	r14, r22
     dba:	6a 01       	movw	r12, r20
	bool passed = exceptions.Count()<=0;
     dbc:	0e 94 71 07 	call	0xee2	; 0xee2 <_ZN10Exceptions5CountEv>
     dc0:	11 e0       	ldi	r17, 0x01	; 1
     dc2:	00 97       	sbiw	r24, 0x00	; 0
     dc4:	09 f0       	breq	.+2      	; 0xdc8 <_ZN6Assert20DoesntThrowExceptionER10ExceptionsPKcP12ISendMessage+0x20>
     dc6:	10 e0       	ldi	r17, 0x00	; 0
	SendResponse(passed, passed?NULL:exceptions.exceptions[0]->ToString(), nameP, iSendMessage);
     dc8:	89 2b       	or	r24, r25
     dca:	69 f0       	breq	.+26     	; 0xde6 <_ZN6Assert20DoesntThrowExceptionER10ExceptionsPKcP12ISendMessage+0x3e>
     dcc:	ec 81       	ldd	r30, Y+4	; 0x04
     dce:	fd 81       	ldd	r31, Y+5	; 0x05
     dd0:	80 81       	ld	r24, Z
     dd2:	91 81       	ldd	r25, Z+1	; 0x01
     dd4:	dc 01       	movw	r26, r24
     dd6:	ed 91       	ld	r30, X+
     dd8:	fc 91       	ld	r31, X
     dda:	01 90       	ld	r0, Z+
     ddc:	f0 81       	ld	r31, Z
     dde:	e0 2d       	mov	r30, r0
     de0:	09 95       	icall
     de2:	bc 01       	movw	r22, r24
     de4:	02 c0       	rjmp	.+4      	; 0xdea <_ZN6Assert20DoesntThrowExceptionER10ExceptionsPKcP12ISendMessage+0x42>
     de6:	60 e0       	ldi	r22, 0x00	; 0
     de8:	70 e0       	ldi	r23, 0x00	; 0
     dea:	96 01       	movw	r18, r12
     dec:	a7 01       	movw	r20, r14
     dee:	81 2f       	mov	r24, r17
     df0:	0e 94 8a 06 	call	0xd14	; 0xd14 <_ZN6Assert12SendResponseEbPKcS1_P12ISendMessage>
	return exceptions.Count()>0;
     df4:	ce 01       	movw	r24, r28
     df6:	0e 94 71 07 	call	0xee2	; 0xee2 <_ZN10Exceptions5CountEv>
     dfa:	21 e0       	ldi	r18, 0x01	; 1
     dfc:	89 2b       	or	r24, r25
     dfe:	09 f4       	brne	.+2      	; 0xe02 <_ZN6Assert20DoesntThrowExceptionER10ExceptionsPKcP12ISendMessage+0x5a>
     e00:	20 e0       	ldi	r18, 0x00	; 0
}
     e02:	82 2f       	mov	r24, r18
     e04:	df 91       	pop	r29
     e06:	cf 91       	pop	r28
     e08:	1f 91       	pop	r17
     e0a:	ff 90       	pop	r15
     e0c:	ef 90       	pop	r14
     e0e:	df 90       	pop	r13
     e10:	cf 90       	pop	r12
     e12:	08 95       	ret

00000e14 <_ZN9Exception8ToStringEv>:

// default constructor
Exception::Exception()
{
} //Outputs
Exception::Exception(char* message):message(message)
     e14:	08 95       	ret

00000e16 <_ZN9ExceptionC1Ev>:
     e16:	2e e2       	ldi	r18, 0x2E	; 46
     e18:	31 e0       	ldi	r19, 0x01	; 1
     e1a:	fc 01       	movw	r30, r24
     e1c:	31 83       	std	Z+1, r19	; 0x01
     e1e:	20 83       	st	Z, r18
     e20:	13 82       	std	Z+3, r1	; 0x03
     e22:	12 82       	std	Z+2, r1	; 0x02
     e24:	08 95       	ret

00000e26 <_ZN9ExceptionD1Ev>:
{
} //Outputs

// default destructor
Exception::~Exception()
     e26:	2e e2       	ldi	r18, 0x2E	; 46
     e28:	31 e0       	ldi	r19, 0x01	; 1
     e2a:	fc 01       	movw	r30, r24
     e2c:	31 83       	std	Z+1, r19	; 0x01
     e2e:	20 83       	st	Z, r18
{
if(message!=NULL){
     e30:	82 81       	ldd	r24, Z+2	; 0x02
     e32:	93 81       	ldd	r25, Z+3	; 0x03
     e34:	00 97       	sbiw	r24, 0x00	; 0
     e36:	11 f0       	breq	.+4      	; 0xe3c <_ZN9ExceptionD1Ev+0x16>
delete message;
     e38:	0e 94 84 08 	call	0x1108	; 0x1108 <_ZdlPv>
     e3c:	08 95       	ret

00000e3e <_ZN10ExceptionsC1Ev>:


#include "Exceptions.h"
#include <stdlib.h>
// default constructor
Exceptions::Exceptions(){
     e3e:	fc 01       	movw	r30, r24
		for(size_t i=0; i<d_size; i++){
			if(d==d_data[i])return true;
		}
		return false;
	}
	simple_vector() : d_size(0), d_capacity(0), d_data(0) {
     e40:	11 82       	std	Z+1, r1	; 0x01
     e42:	10 82       	st	Z, r1
     e44:	13 82       	std	Z+3, r1	; 0x03
     e46:	12 82       	std	Z+2, r1	; 0x02
     e48:	15 82       	std	Z+5, r1	; 0x05
     e4a:	14 82       	std	Z+4, r1	; 0x04
     e4c:	08 95       	ret

00000e4e <_ZN10Exceptions3AddEP9Exception>:
		this->exceptions.push_back(exception);
		exceptions->exceptions[i]=NULL;
	}
	delete exceptions;
}
void Exceptions::Add(Exception* exception){
     e4e:	af 92       	push	r10
     e50:	bf 92       	push	r11
     e52:	cf 92       	push	r12
     e54:	df 92       	push	r13
     e56:	ef 92       	push	r14
     e58:	ff 92       	push	r15
     e5a:	0f 93       	push	r16
     e5c:	1f 93       	push	r17
     e5e:	cf 93       	push	r28
     e60:	df 93       	push	r29
     e62:	ec 01       	movw	r28, r24
     e64:	7b 01       	movw	r14, r22
	simple_vector &operator=(   simple_vector const &other) {
		free(d_data); d_size = other.d_size; d_capacity = other.d_capacity; d_data = (Data *)malloc(d_capacity*sizeof(Data)); memcpy(d_data, other.d_data, d_size*sizeof(Data)); return *this;
	}; // Needed for memory management

	void push_back(Data const &x)  {
		if (d_capacity == d_size) resize(); d_data[d_size++] = x;
     e66:	0a 81       	ldd	r16, Y+2	; 0x02
     e68:	1b 81       	ldd	r17, Y+3	; 0x03
     e6a:	88 81       	ld	r24, Y
     e6c:	99 81       	ldd	r25, Y+1	; 0x01
     e6e:	08 17       	cp	r16, r24
     e70:	19 07       	cpc	r17, r25
     e72:	e9 f4       	brne	.+58     	; 0xeae <_ZN10Exceptions3AddEP9Exception+0x60>
		return d_data[idx];
	}; // Changeable getter

	private:
	void resize()  {
		d_capacity = d_capacity ? d_capacity*2 : 1;
     e74:	01 15       	cp	r16, r1
     e76:	11 05       	cpc	r17, r1
     e78:	21 f0       	breq	.+8      	; 0xe82 <_ZN10Exceptions3AddEP9Exception+0x34>
     e7a:	c8 01       	movw	r24, r16
     e7c:	88 0f       	add	r24, r24
     e7e:	99 1f       	adc	r25, r25
     e80:	02 c0       	rjmp	.+4      	; 0xe86 <_ZN10Exceptions3AddEP9Exception+0x38>
     e82:	81 e0       	ldi	r24, 0x01	; 1
     e84:	90 e0       	ldi	r25, 0x00	; 0
     e86:	9b 83       	std	Y+3, r25	; 0x03
     e88:	8a 83       	std	Y+2, r24	; 0x02
		Data *newdata = (Data *)malloc(d_capacity*sizeof(Data));
     e8a:	88 0f       	add	r24, r24
     e8c:	99 1f       	adc	r25, r25
     e8e:	0e 94 14 18 	call	0x3028	; 0x3028 <malloc>
     e92:	6c 01       	movw	r12, r24
		memcpy(newdata, d_data, d_size * sizeof(Data));
     e94:	ac 80       	ldd	r10, Y+4	; 0x04
     e96:	bd 80       	ldd	r11, Y+5	; 0x05
     e98:	a8 01       	movw	r20, r16
     e9a:	44 0f       	add	r20, r20
     e9c:	55 1f       	adc	r21, r21
     e9e:	b5 01       	movw	r22, r10
     ea0:	0e 94 4e 19 	call	0x329c	; 0x329c <memcpy>
		free(d_data); d_data = newdata;
     ea4:	c5 01       	movw	r24, r10
     ea6:	0e 94 ac 18 	call	0x3158	; 0x3158 <free>
     eaa:	dd 82       	std	Y+5, r13	; 0x05
     eac:	cc 82       	std	Y+4, r12	; 0x04
	simple_vector &operator=(   simple_vector const &other) {
		free(d_data); d_size = other.d_size; d_capacity = other.d_capacity; d_data = (Data *)malloc(d_capacity*sizeof(Data)); memcpy(d_data, other.d_data, d_size*sizeof(Data)); return *this;
	}; // Needed for memory management

	void push_back(Data const &x)  {
		if (d_capacity == d_size) resize(); d_data[d_size++] = x;
     eae:	ec 81       	ldd	r30, Y+4	; 0x04
     eb0:	fd 81       	ldd	r31, Y+5	; 0x05
     eb2:	88 81       	ld	r24, Y
     eb4:	99 81       	ldd	r25, Y+1	; 0x01
     eb6:	9c 01       	movw	r18, r24
     eb8:	2f 5f       	subi	r18, 0xFF	; 255
     eba:	3f 4f       	sbci	r19, 0xFF	; 255
     ebc:	39 83       	std	Y+1, r19	; 0x01
     ebe:	28 83       	st	Y, r18
     ec0:	88 0f       	add	r24, r24
     ec2:	99 1f       	adc	r25, r25
     ec4:	e8 0f       	add	r30, r24
     ec6:	f9 1f       	adc	r31, r25
     ec8:	f1 82       	std	Z+1, r15	; 0x01
     eca:	e0 82       	st	Z, r14
exceptions.push_back(exception);}
     ecc:	df 91       	pop	r29
     ece:	cf 91       	pop	r28
     ed0:	1f 91       	pop	r17
     ed2:	0f 91       	pop	r16
     ed4:	ff 90       	pop	r15
     ed6:	ef 90       	pop	r14
     ed8:	df 90       	pop	r13
     eda:	cf 90       	pop	r12
     edc:	bf 90       	pop	r11
     ede:	af 90       	pop	r10
     ee0:	08 95       	ret

00000ee2 <_ZN10Exceptions5CountEv>:
unsigned int Exceptions::Count(){
	return exceptions.size();
}
     ee2:	fc 01       	movw	r30, r24
     ee4:	80 81       	ld	r24, Z
     ee6:	91 81       	ldd	r25, Z+1	; 0x01
     ee8:	08 95       	ret

00000eea <_ZN10ExceptionsD1Ev>:
// default destructor
Exceptions::~Exceptions()
     eea:	cf 92       	push	r12
     eec:	df 92       	push	r13
     eee:	ef 92       	push	r14
     ef0:	ff 92       	push	r15
     ef2:	0f 93       	push	r16
     ef4:	1f 93       	push	r17
     ef6:	cf 93       	push	r28
     ef8:	df 93       	push	r29
     efa:	8c 01       	movw	r16, r24
		size_t idx=index_of(x);
		if(idx>=0)
		erase(idx);
	}
	size_t size()  const {
		return d_size;
     efc:	dc 01       	movw	r26, r24
     efe:	ed 90       	ld	r14, X+
     f00:	fc 90       	ld	r15, X
{
	unsigned int size = exceptions.size();
	for(unsigned int i=0; i<size; i++){
     f02:	e1 14       	cp	r14, r1
     f04:	f1 04       	cpc	r15, r1
     f06:	d9 f0       	breq	.+54     	; 0xf3e <_ZN10ExceptionsD1Ev+0x54>
     f08:	c0 e0       	ldi	r28, 0x00	; 0
     f0a:	d0 e0       	ldi	r29, 0x00	; 0
		if(exceptions[i]!=NULL)
     f0c:	d8 01       	movw	r26, r16
     f0e:	14 96       	adiw	r26, 0x04	; 4
     f10:	ed 91       	ld	r30, X+
     f12:	fc 91       	ld	r31, X
     f14:	15 97       	sbiw	r26, 0x05	; 5
     f16:	ce 01       	movw	r24, r28
     f18:	88 0f       	add	r24, r24
     f1a:	99 1f       	adc	r25, r25
     f1c:	e8 0f       	add	r30, r24
     f1e:	f9 1f       	adc	r31, r25
     f20:	c0 80       	ld	r12, Z
     f22:	d1 80       	ldd	r13, Z+1	; 0x01
		delete exceptions[i];
     f24:	c1 14       	cp	r12, r1
     f26:	d1 04       	cpc	r13, r1
     f28:	31 f0       	breq	.+12     	; 0xf36 <_ZN10ExceptionsD1Ev+0x4c>
     f2a:	c6 01       	movw	r24, r12
     f2c:	0e 94 13 07 	call	0xe26	; 0xe26 <_ZN9ExceptionD1Ev>
     f30:	c6 01       	movw	r24, r12
     f32:	0e 94 84 08 	call	0x1108	; 0x1108 <_ZdlPv>
}
// default destructor
Exceptions::~Exceptions()
{
	unsigned int size = exceptions.size();
	for(unsigned int i=0; i<size; i++){
     f36:	21 96       	adiw	r28, 0x01	; 1
     f38:	ec 16       	cp	r14, r28
     f3a:	fd 06       	cpc	r15, r29
     f3c:	39 f7       	brne	.-50     	; 0xf0c <_ZN10ExceptionsD1Ev+0x22>
		d_data = (Data *)malloc (d_capacity*sizeof(Data));
		memcpy(d_data, other.d_data, d_size*sizeof(Data));
	}; // Copy constuctor

	~simple_vector() {
		free(d_data);
     f3e:	f8 01       	movw	r30, r16
     f40:	84 81       	ldd	r24, Z+4	; 0x04
     f42:	95 81       	ldd	r25, Z+5	; 0x05
     f44:	0e 94 ac 18 	call	0x3158	; 0x3158 <free>
		if(exceptions[i]!=NULL)
		delete exceptions[i];
	}
} //~Exceptions
     f48:	df 91       	pop	r29
     f4a:	cf 91       	pop	r28
     f4c:	1f 91       	pop	r17
     f4e:	0f 91       	pop	r16
     f50:	ff 90       	pop	r15
     f52:	ef 90       	pop	r14
     f54:	df 90       	pop	r13
     f56:	cf 90       	pop	r12
     f58:	08 95       	ret

00000f5a <_ZN7MessageC1EPKcj>:
* Created: 09/10/2017 13:01:34
* Author: SoftwareEngineer
*/
#include <stdlib.h>
#include "Message.h"
Message::Message(const char* bufferIn, unsigned int lengthIn):length(lengthIn), buffer(bufferIn){
     f5a:	fc 01       	movw	r30, r24
     f5c:	71 83       	std	Z+1, r23	; 0x01
     f5e:	60 83       	st	Z, r22
     f60:	53 83       	std	Z+3, r21	; 0x03
     f62:	42 83       	std	Z+2, r20	; 0x02
     f64:	08 95       	ret

00000f66 <_ZN7MessageD1Ev>:
	
}
Message::~Message(){
	delete[] this->buffer;
     f66:	fc 01       	movw	r30, r24
     f68:	80 81       	ld	r24, Z
     f6a:	91 81       	ldd	r25, Z+1	; 0x01
     f6c:	00 97       	sbiw	r24, 0x00	; 0
     f6e:	11 f0       	breq	.+4      	; 0xf74 <_ZN7MessageD1Ev+0xe>
     f70:	0e 94 87 08 	call	0x110e	; 0x110e <_ZdaPv>
     f74:	08 95       	ret

00000f76 <_ZN8MessagesC1EPP7Messagec>:
*
* Created: 09/10/2017 13:01:34
* Author: SoftwareEngineer
*/
#include "Messages.h"
Messages::Messages(Message* messagesIn[], char lengthIn): length(lengthIn){
     f76:	ff 92       	push	r15
     f78:	0f 93       	push	r16
     f7a:	1f 93       	push	r17
     f7c:	cf 93       	push	r28
     f7e:	df 93       	push	r29
     f80:	ec 01       	movw	r28, r24
     f82:	f6 2e       	mov	r15, r22
     f84:	07 2f       	mov	r16, r23
     f86:	14 2f       	mov	r17, r20
     f88:	84 2f       	mov	r24, r20
     f8a:	90 e0       	ldi	r25, 0x00	; 0
     f8c:	9b 83       	std	Y+3, r25	; 0x03
     f8e:	8a 83       	std	Y+2, r24	; 0x02
	messages = new Message*[lengthIn];
     f90:	88 0f       	add	r24, r24
     f92:	99 1f       	adc	r25, r25
     f94:	0e 94 81 08 	call	0x1102	; 0x1102 <_Znaj>
     f98:	99 83       	std	Y+1, r25	; 0x01
     f9a:	88 83       	st	Y, r24
	for(char i=0; i<lengthIn; i++)
     f9c:	11 23       	and	r17, r17
     f9e:	b9 f0       	breq	.+46     	; 0xfce <_ZN8MessagesC1EPP7Messagec+0x58>
     fa0:	af 2d       	mov	r26, r15
     fa2:	b0 2f       	mov	r27, r16
     fa4:	11 50       	subi	r17, 0x01	; 1
     fa6:	21 2f       	mov	r18, r17
     fa8:	30 e0       	ldi	r19, 0x00	; 0
     faa:	2f 5f       	subi	r18, 0xFF	; 255
     fac:	3f 4f       	sbci	r19, 0xFF	; 255
     fae:	22 0f       	add	r18, r18
     fb0:	33 1f       	adc	r19, r19
     fb2:	80 e0       	ldi	r24, 0x00	; 0
     fb4:	90 e0       	ldi	r25, 0x00	; 0
	messages[i]= messagesIn[i];
     fb6:	4d 91       	ld	r20, X+
     fb8:	5d 91       	ld	r21, X+
     fba:	e8 81       	ld	r30, Y
     fbc:	f9 81       	ldd	r31, Y+1	; 0x01
     fbe:	e8 0f       	add	r30, r24
     fc0:	f9 1f       	adc	r31, r25
     fc2:	51 83       	std	Z+1, r21	; 0x01
     fc4:	40 83       	st	Z, r20
     fc6:	02 96       	adiw	r24, 0x02	; 2
* Author: SoftwareEngineer
*/
#include "Messages.h"
Messages::Messages(Message* messagesIn[], char lengthIn): length(lengthIn){
	messages = new Message*[lengthIn];
	for(char i=0; i<lengthIn; i++)
     fc8:	82 17       	cp	r24, r18
     fca:	93 07       	cpc	r25, r19
     fcc:	a1 f7       	brne	.-24     	; 0xfb6 <_ZN8MessagesC1EPP7Messagec+0x40>
	messages[i]= messagesIn[i];
}
     fce:	df 91       	pop	r29
     fd0:	cf 91       	pop	r28
     fd2:	1f 91       	pop	r17
     fd4:	0f 91       	pop	r16
     fd6:	ff 90       	pop	r15
     fd8:	08 95       	ret

00000fda <_ZN8MessagesD1Ev>:
Messages::~Messages(){
     fda:	ef 92       	push	r14
     fdc:	ff 92       	push	r15
     fde:	0f 93       	push	r16
     fe0:	1f 93       	push	r17
     fe2:	cf 93       	push	r28
     fe4:	7c 01       	movw	r14, r24

	for(char i=0; i<length; i++)
     fe6:	dc 01       	movw	r26, r24
     fe8:	12 96       	adiw	r26, 0x02	; 2
     fea:	8d 91       	ld	r24, X+
     fec:	9c 91       	ld	r25, X
     fee:	13 97       	sbiw	r26, 0x03	; 3
     ff0:	18 16       	cp	r1, r24
     ff2:	19 06       	cpc	r1, r25
     ff4:	f4 f4       	brge	.+60     	; 0x1032 <_ZN8MessagesD1Ev+0x58>
     ff6:	c0 e0       	ldi	r28, 0x00	; 0
	{
		delete messages[i];
     ff8:	ec 2f       	mov	r30, r28
     ffa:	f0 e0       	ldi	r31, 0x00	; 0
     ffc:	ee 0f       	add	r30, r30
     ffe:	ff 1f       	adc	r31, r31
    1000:	d7 01       	movw	r26, r14
    1002:	8d 91       	ld	r24, X+
    1004:	9c 91       	ld	r25, X
    1006:	e8 0f       	add	r30, r24
    1008:	f9 1f       	adc	r31, r25
    100a:	00 81       	ld	r16, Z
    100c:	11 81       	ldd	r17, Z+1	; 0x01
    100e:	01 15       	cp	r16, r1
    1010:	11 05       	cpc	r17, r1
    1012:	31 f0       	breq	.+12     	; 0x1020 <_ZN8MessagesD1Ev+0x46>
    1014:	c8 01       	movw	r24, r16
    1016:	0e 94 b3 07 	call	0xf66	; 0xf66 <_ZN7MessageD1Ev>
    101a:	c8 01       	movw	r24, r16
    101c:	0e 94 84 08 	call	0x1108	; 0x1108 <_ZdlPv>
	for(char i=0; i<lengthIn; i++)
	messages[i]= messagesIn[i];
}
Messages::~Messages(){

	for(char i=0; i<length; i++)
    1020:	cf 5f       	subi	r28, 0xFF	; 255
    1022:	2c 2f       	mov	r18, r28
    1024:	30 e0       	ldi	r19, 0x00	; 0
    1026:	f7 01       	movw	r30, r14
    1028:	82 81       	ldd	r24, Z+2	; 0x02
    102a:	93 81       	ldd	r25, Z+3	; 0x03
    102c:	28 17       	cp	r18, r24
    102e:	39 07       	cpc	r19, r25
    1030:	1c f3       	brlt	.-58     	; 0xff8 <_ZN8MessagesD1Ev+0x1e>
	{
		delete messages[i];
	}
	delete[] messages;
    1032:	d7 01       	movw	r26, r14
    1034:	8d 91       	ld	r24, X+
    1036:	9c 91       	ld	r25, X
    1038:	00 97       	sbiw	r24, 0x00	; 0
    103a:	11 f0       	breq	.+4      	; 0x1040 <_ZN8MessagesD1Ev+0x66>
    103c:	0e 94 87 08 	call	0x110e	; 0x110e <_ZdaPv>
    1040:	cf 91       	pop	r28
    1042:	1f 91       	pop	r17
    1044:	0f 91       	pop	r16
    1046:	ff 90       	pop	r15
    1048:	ef 90       	pop	r14
    104a:	08 95       	ret

0000104c <_ZN9Stopwatch4TickEv>:
	startMs=msSinceTimerStart;
}
void Stopwatch::Tick(){
	Stopwatch::msSinceTimerStart+=10;
}
Stopwatch::~Stopwatch()
    104c:	80 91 d5 02 	lds	r24, 0x02D5	; 0x8002d5 <_ZN9Stopwatch17msSinceTimerStartE>
    1050:	90 91 d6 02 	lds	r25, 0x02D6	; 0x8002d6 <_ZN9Stopwatch17msSinceTimerStartE+0x1>
    1054:	a0 91 d7 02 	lds	r26, 0x02D7	; 0x8002d7 <_ZN9Stopwatch17msSinceTimerStartE+0x2>
    1058:	b0 91 d8 02 	lds	r27, 0x02D8	; 0x8002d8 <_ZN9Stopwatch17msSinceTimerStartE+0x3>
    105c:	0a 96       	adiw	r24, 0x0a	; 10
    105e:	a1 1d       	adc	r26, r1
    1060:	b1 1d       	adc	r27, r1
    1062:	80 93 d5 02 	sts	0x02D5, r24	; 0x8002d5 <_ZN9Stopwatch17msSinceTimerStartE>
    1066:	90 93 d6 02 	sts	0x02D6, r25	; 0x8002d6 <_ZN9Stopwatch17msSinceTimerStartE+0x1>
    106a:	a0 93 d7 02 	sts	0x02D7, r26	; 0x8002d7 <_ZN9Stopwatch17msSinceTimerStartE+0x2>
    106e:	b0 93 d8 02 	sts	0x02D8, r27	; 0x8002d8 <_ZN9Stopwatch17msSinceTimerStartE+0x3>
    1072:	08 95       	ret

00001074 <_ZN9StopwatchC1Ev>:
    1074:	cf 93       	push	r28
    1076:	df 93       	push	r29
    1078:	ec 01       	movw	r28, r24
    107a:	80 91 d4 02 	lds	r24, 0x02D4	; 0x8002d4 <__data_end>
    107e:	81 11       	cpse	r24, r1
    1080:	08 c0       	rjmp	.+16     	; 0x1092 <_ZN9StopwatchC1Ev+0x1e>
    1082:	61 e0       	ldi	r22, 0x01	; 1
    1084:	86 e2       	ldi	r24, 0x26	; 38
    1086:	98 e0       	ldi	r25, 0x08	; 8
    1088:	0e 94 8a 08 	call	0x1114	; 0x1114 <_ZN6Ticker3AddEPFvvE11TickerDelay>
    108c:	81 e0       	ldi	r24, 0x01	; 1
    108e:	80 93 d4 02 	sts	0x02D4, r24	; 0x8002d4 <__data_end>
    1092:	80 91 d5 02 	lds	r24, 0x02D5	; 0x8002d5 <_ZN9Stopwatch17msSinceTimerStartE>
    1096:	90 91 d6 02 	lds	r25, 0x02D6	; 0x8002d6 <_ZN9Stopwatch17msSinceTimerStartE+0x1>
    109a:	a0 91 d7 02 	lds	r26, 0x02D7	; 0x8002d7 <_ZN9Stopwatch17msSinceTimerStartE+0x2>
    109e:	b0 91 d8 02 	lds	r27, 0x02D8	; 0x8002d8 <_ZN9Stopwatch17msSinceTimerStartE+0x3>
    10a2:	88 83       	st	Y, r24
    10a4:	99 83       	std	Y+1, r25	; 0x01
    10a6:	aa 83       	std	Y+2, r26	; 0x02
    10a8:	bb 83       	std	Y+3, r27	; 0x03
    10aa:	df 91       	pop	r29
    10ac:	cf 91       	pop	r28
    10ae:	08 95       	ret

000010b0 <_ZN9Stopwatch5GetMsEv>:
{
}
long Stopwatch::GetMs()
{
    10b0:	0f 93       	push	r16
    10b2:	1f 93       	push	r17
    10b4:	fc 01       	movw	r30, r24
	return msSinceTimerStart-this->startMs;
    10b6:	80 91 d5 02 	lds	r24, 0x02D5	; 0x8002d5 <_ZN9Stopwatch17msSinceTimerStartE>
    10ba:	90 91 d6 02 	lds	r25, 0x02D6	; 0x8002d6 <_ZN9Stopwatch17msSinceTimerStartE+0x1>
    10be:	a0 91 d7 02 	lds	r26, 0x02D7	; 0x8002d7 <_ZN9Stopwatch17msSinceTimerStartE+0x2>
    10c2:	b0 91 d8 02 	lds	r27, 0x02D8	; 0x8002d8 <_ZN9Stopwatch17msSinceTimerStartE+0x3>
    10c6:	00 81       	ld	r16, Z
    10c8:	11 81       	ldd	r17, Z+1	; 0x01
    10ca:	22 81       	ldd	r18, Z+2	; 0x02
    10cc:	33 81       	ldd	r19, Z+3	; 0x03
    10ce:	bc 01       	movw	r22, r24
    10d0:	cd 01       	movw	r24, r26
    10d2:	60 1b       	sub	r22, r16
    10d4:	71 0b       	sbc	r23, r17
    10d6:	82 0b       	sbc	r24, r18
    10d8:	93 0b       	sbc	r25, r19
}
    10da:	1f 91       	pop	r17
    10dc:	0f 91       	pop	r16
    10de:	08 95       	ret

000010e0 <_ZN9Stopwatch5ResetEv>:
void Stopwatch::Reset()
{
	startMs=msSinceTimerStart;
    10e0:	40 91 d5 02 	lds	r20, 0x02D5	; 0x8002d5 <_ZN9Stopwatch17msSinceTimerStartE>
    10e4:	50 91 d6 02 	lds	r21, 0x02D6	; 0x8002d6 <_ZN9Stopwatch17msSinceTimerStartE+0x1>
    10e8:	60 91 d7 02 	lds	r22, 0x02D7	; 0x8002d7 <_ZN9Stopwatch17msSinceTimerStartE+0x2>
    10ec:	70 91 d8 02 	lds	r23, 0x02D8	; 0x8002d8 <_ZN9Stopwatch17msSinceTimerStartE+0x3>
    10f0:	fc 01       	movw	r30, r24
    10f2:	40 83       	st	Z, r20
    10f4:	51 83       	std	Z+1, r21	; 0x01
    10f6:	62 83       	std	Z+2, r22	; 0x02
    10f8:	73 83       	std	Z+3, r23	; 0x03
    10fa:	08 95       	ret

000010fc <_Znwj>:
 */

void* operator new(size_t size_,void *ptr_)
{
	return ptr_;
}
    10fc:	0e 94 14 18 	call	0x3028	; 0x3028 <malloc>
    1100:	08 95       	ret

00001102 <_Znaj>:
    1102:	0e 94 14 18 	call	0x3028	; 0x3028 <malloc>
    1106:	08 95       	ret

00001108 <_ZdlPv>:
 * Global operator delete
 */
 
 void operator delete(void *ptr_)
 {
	 free(ptr_);
    1108:	0e 94 ac 18 	call	0x3158	; 0x3158 <free>
    110c:	08 95       	ret

0000110e <_ZdaPv>:
 }
 void operator delete[](void *ptr_)
 {
	 free(ptr_);
    110e:	0e 94 ac 18 	call	0x3158	; 0x3158 <free>
    1112:	08 95       	ret

00001114 <_ZN6Ticker3AddEPFvvE11TickerDelay>:
#include "new.h"
#include "Uart.h"
#define CLOCK_SPEED (800000UL)
volatile volatile_vector< Ticker::Callback>Ticker::tickerCallbacksMilliseconds;
volatile volatile_vector< Ticker::Callback>Ticker::tickerCallbacksSeconds;
void Ticker::Add(Ticker::Callback  callback, TickerDelay tickerDelay){
    1114:	ef 92       	push	r14
    1116:	ff 92       	push	r15
    1118:	0f 93       	push	r16
    111a:	1f 93       	push	r17
    111c:	cf 93       	push	r28
    111e:	df 93       	push	r29
    1120:	ec 01       	movw	r28, r24
	static bool initialized=false;
	if(!initialized){
    1122:	80 91 d9 02 	lds	r24, 0x02D9	; 0x8002d9 <_ZZN6Ticker3AddEPFvvE11TickerDelayE11initialized>
    1126:	81 11       	cpse	r24, r1
    1128:	14 c0       	rjmp	.+40     	; 0x1152 <_ZN6Ticker3AddEPFvvE11TickerDelay+0x3e>
		//http://www.arduinoslovakia.eu/application/timer-calculator
		TCCR0A = 0;
    112a:	14 bc       	out	0x24, r1	; 36
		TCCR0B = 0;
    112c:	15 bc       	out	0x25, r1	; 37
		TCNT0 = 0;
    112e:	16 bc       	out	0x26, r1	; 38

		// 100.16025641025641 Hz (8000000/((77+1)*1024))
		OCR0A = 77;
    1130:	8d e4       	ldi	r24, 0x4D	; 77
    1132:	87 bd       	out	0x27, r24	; 39
		// CTC
		TCCR0A |= (1 << WGM01);
    1134:	84 b5       	in	r24, 0x24	; 36
    1136:	82 60       	ori	r24, 0x02	; 2
    1138:	84 bd       	out	0x24, r24	; 36
		// Prescaler 1024
		TCCR0B |= (1 << CS02) | (1 << CS00);
    113a:	85 b5       	in	r24, 0x25	; 37
    113c:	85 60       	ori	r24, 0x05	; 5
    113e:	85 bd       	out	0x25, r24	; 37
		// Output Compare Match A Interrupt Enable
		TIMSK0 |= (1 << OCIE0A);
    1140:	ee e6       	ldi	r30, 0x6E	; 110
    1142:	f0 e0       	ldi	r31, 0x00	; 0
    1144:	80 81       	ld	r24, Z
    1146:	82 60       	ori	r24, 0x02	; 2
    1148:	80 83       	st	Z, r24
		sei();
    114a:	78 94       	sei
		initialized=true;
    114c:	81 e0       	ldi	r24, 0x01	; 1
    114e:	80 93 d9 02 	sts	0x02D9, r24	; 0x8002d9 <_ZZN6Ticker3AddEPFvvE11TickerDelayE11initialized>
	}
	if(tickerDelay==TenMillisecond){
    1152:	61 30       	cpi	r22, 0x01	; 1
    1154:	41 f0       	breq	.+16     	; 0x1166 <_ZN6Ticker3AddEPFvvE11TickerDelay+0x52>
	size_t d_size; // Stores no. of actually stored objects
	size_t d_capacity; // Stores allocated capacity
	Data *d_data; // Stores data
	public:
	bool contains(Data const &d) volatile{
 for(size_t i=0; i<d_size; i++){
    1156:	80 91 da 02 	lds	r24, 0x02DA	; 0x8002da <_ZN6Ticker22tickerCallbacksSecondsE>
    115a:	90 91 db 02 	lds	r25, 0x02DB	; 0x8002db <_ZN6Ticker22tickerCallbacksSecondsE+0x1>
    115e:	89 2b       	or	r24, r25
    1160:	09 f0       	breq	.+2      	; 0x1164 <_ZN6Ticker3AddEPFvvE11TickerDelay+0x50>
    1162:	70 c0       	rjmp	.+224    	; 0x1244 <_ZN6Ticker3AddEPFvvE11TickerDelay+0x130>
    1164:	e2 c0       	rjmp	.+452    	; 0x132a <_ZN6Ticker3AddEPFvvE11TickerDelay+0x216>
    1166:	80 91 e0 02 	lds	r24, 0x02E0	; 0x8002e0 <_ZN6Ticker27tickerCallbacksMillisecondsE>
    116a:	90 91 e1 02 	lds	r25, 0x02E1	; 0x8002e1 <_ZN6Ticker27tickerCallbacksMillisecondsE+0x1>
    116e:	89 2b       	or	r24, r25
    1170:	09 f4       	brne	.+2      	; 0x1174 <_ZN6Ticker3AddEPFvvE11TickerDelay+0x60>
    1172:	d0 c0       	rjmp	.+416    	; 0x1314 <_ZN6Ticker3AddEPFvvE11TickerDelay+0x200>
	if(d==d_data[i])return true;
    1174:	e0 91 e4 02 	lds	r30, 0x02E4	; 0x8002e4 <_ZN6Ticker27tickerCallbacksMillisecondsE+0x4>
    1178:	f0 91 e5 02 	lds	r31, 0x02E5	; 0x8002e5 <_ZN6Ticker27tickerCallbacksMillisecondsE+0x5>
    117c:	80 81       	ld	r24, Z
    117e:	91 81       	ldd	r25, Z+1	; 0x01
    1180:	c8 17       	cp	r28, r24
    1182:	d9 07       	cpc	r29, r25
    1184:	09 f4       	brne	.+2      	; 0x1188 <_ZN6Ticker3AddEPFvvE11TickerDelay+0x74>
    1186:	db c0       	rjmp	.+438    	; 0x133e <_ZN6Ticker3AddEPFvvE11TickerDelay+0x22a>
    1188:	80 e0       	ldi	r24, 0x00	; 0
    118a:	90 e0       	ldi	r25, 0x00	; 0
	size_t d_size; // Stores no. of actually stored objects
	size_t d_capacity; // Stores allocated capacity
	Data *d_data; // Stores data
	public:
	bool contains(Data const &d) volatile{
 for(size_t i=0; i<d_size; i++){
    118c:	a0 ee       	ldi	r26, 0xE0	; 224
    118e:	b2 e0       	ldi	r27, 0x02	; 2
    1190:	0f c0       	rjmp	.+30     	; 0x11b0 <_ZN6Ticker3AddEPFvvE11TickerDelay+0x9c>
	if(d==d_data[i])return true;
    1192:	14 96       	adiw	r26, 0x04	; 4
    1194:	ed 91       	ld	r30, X+
    1196:	fc 91       	ld	r31, X
    1198:	15 97       	sbiw	r26, 0x05	; 5
    119a:	9c 01       	movw	r18, r24
    119c:	22 0f       	add	r18, r18
    119e:	33 1f       	adc	r19, r19
    11a0:	e2 0f       	add	r30, r18
    11a2:	f3 1f       	adc	r31, r19
    11a4:	20 81       	ld	r18, Z
    11a6:	31 81       	ldd	r19, Z+1	; 0x01
    11a8:	2c 17       	cp	r18, r28
    11aa:	3d 07       	cpc	r19, r29
    11ac:	09 f4       	brne	.+2      	; 0x11b0 <_ZN6Ticker3AddEPFvvE11TickerDelay+0x9c>
    11ae:	c7 c0       	rjmp	.+398    	; 0x133e <_ZN6Ticker3AddEPFvvE11TickerDelay+0x22a>
	size_t d_size; // Stores no. of actually stored objects
	size_t d_capacity; // Stores allocated capacity
	Data *d_data; // Stores data
	public:
	bool contains(Data const &d) volatile{
 for(size_t i=0; i<d_size; i++){
    11b0:	01 96       	adiw	r24, 0x01	; 1
    11b2:	2d 91       	ld	r18, X+
    11b4:	3c 91       	ld	r19, X
    11b6:	11 97       	sbiw	r26, 0x01	; 1
    11b8:	82 17       	cp	r24, r18
    11ba:	93 07       	cpc	r25, r19
    11bc:	50 f3       	brcs	.-44     	; 0x1192 <_ZN6Ticker3AddEPFvvE11TickerDelay+0x7e>
    11be:	aa c0       	rjmp	.+340    	; 0x1314 <_ZN6Ticker3AddEPFvvE11TickerDelay+0x200>
	void push_back(Data const &x) volatile { if (d_capacity == d_size) resize(); d_data[d_size++] = x; }; // Adds new value. If needed, allocates more space
	size_t size() volatile const { return d_size; }; // Size getter
	Data const &operator[](size_t idx)volatile const { return d_data[idx]; }; // Const getter
	Data &operator[](size_t idx)volatile { return d_data[idx]; }; // Changeable getter
	private:
	void resize() volatile { d_capacity = d_capacity ? d_capacity*2 : 1; Data *newdata = (Data *)malloc(d_capacity*sizeof(Data)); memcpy(newdata, d_data, d_size * sizeof(Data)); free(d_data); d_data = newdata; };// Allocates double the old space
    11c0:	80 91 e2 02 	lds	r24, 0x02E2	; 0x8002e2 <_ZN6Ticker27tickerCallbacksMillisecondsE+0x2>
    11c4:	90 91 e3 02 	lds	r25, 0x02E3	; 0x8002e3 <_ZN6Ticker27tickerCallbacksMillisecondsE+0x3>
    11c8:	89 2b       	or	r24, r25
    11ca:	39 f0       	breq	.+14     	; 0x11da <_ZN6Ticker3AddEPFvvE11TickerDelay+0xc6>
    11cc:	80 91 e2 02 	lds	r24, 0x02E2	; 0x8002e2 <_ZN6Ticker27tickerCallbacksMillisecondsE+0x2>
    11d0:	90 91 e3 02 	lds	r25, 0x02E3	; 0x8002e3 <_ZN6Ticker27tickerCallbacksMillisecondsE+0x3>
    11d4:	88 0f       	add	r24, r24
    11d6:	99 1f       	adc	r25, r25
    11d8:	02 c0       	rjmp	.+4      	; 0x11de <_ZN6Ticker3AddEPFvvE11TickerDelay+0xca>
    11da:	81 e0       	ldi	r24, 0x01	; 1
    11dc:	90 e0       	ldi	r25, 0x00	; 0
    11de:	00 ee       	ldi	r16, 0xE0	; 224
    11e0:	12 e0       	ldi	r17, 0x02	; 2
    11e2:	f8 01       	movw	r30, r16
    11e4:	93 83       	std	Z+3, r25	; 0x03
    11e6:	82 83       	std	Z+2, r24	; 0x02
    11e8:	82 81       	ldd	r24, Z+2	; 0x02
    11ea:	93 81       	ldd	r25, Z+3	; 0x03
    11ec:	88 0f       	add	r24, r24
    11ee:	99 1f       	adc	r25, r25
    11f0:	0e 94 14 18 	call	0x3028	; 0x3028 <malloc>
    11f4:	7c 01       	movw	r14, r24
    11f6:	f8 01       	movw	r30, r16
    11f8:	40 81       	ld	r20, Z
    11fa:	51 81       	ldd	r21, Z+1	; 0x01
    11fc:	64 81       	ldd	r22, Z+4	; 0x04
    11fe:	75 81       	ldd	r23, Z+5	; 0x05
    1200:	44 0f       	add	r20, r20
    1202:	55 1f       	adc	r21, r21
    1204:	0e 94 4e 19 	call	0x329c	; 0x329c <memcpy>
    1208:	f8 01       	movw	r30, r16
    120a:	84 81       	ldd	r24, Z+4	; 0x04
    120c:	95 81       	ldd	r25, Z+5	; 0x05
    120e:	0e 94 ac 18 	call	0x3158	; 0x3158 <free>
    1212:	f8 01       	movw	r30, r16
    1214:	f5 82       	std	Z+5, r15	; 0x05
    1216:	e4 82       	std	Z+4, r14	; 0x04

	}; // Default constructor
	volatile_vector(volatile_vector const &other) : d_size(other.d_size), d_capacity(other.d_capacity), d_data(0) { d_data = (Data *)malloc(d_capacity*sizeof(Data)); memcpy(d_data, other.d_data, d_size*sizeof(Data)); }; // Copy constuctor
	~volatile_vector() { free(d_data); }; // Destructor
	volatile_vector &operator=(volatile_vector const &other) { free(d_data); d_size = other.d_size; d_capacity = other.d_capacity; d_data = (Data *)malloc(d_capacity*sizeof(Data)); memcpy(d_data, other.d_data, d_size*sizeof(Data)); return *this; }; // Needed for memory management
	void push_back(Data const &x) volatile { if (d_capacity == d_size) resize(); d_data[d_size++] = x; }; // Adds new value. If needed, allocates more space
    1218:	a0 ee       	ldi	r26, 0xE0	; 224
    121a:	b2 e0       	ldi	r27, 0x02	; 2
    121c:	14 96       	adiw	r26, 0x04	; 4
    121e:	ed 91       	ld	r30, X+
    1220:	fc 91       	ld	r31, X
    1222:	15 97       	sbiw	r26, 0x05	; 5
    1224:	8d 91       	ld	r24, X+
    1226:	9c 91       	ld	r25, X
    1228:	11 97       	sbiw	r26, 0x01	; 1
    122a:	9c 01       	movw	r18, r24
    122c:	2f 5f       	subi	r18, 0xFF	; 255
    122e:	3f 4f       	sbci	r19, 0xFF	; 255
    1230:	11 96       	adiw	r26, 0x01	; 1
    1232:	3c 93       	st	X, r19
    1234:	2e 93       	st	-X, r18
    1236:	88 0f       	add	r24, r24
    1238:	99 1f       	adc	r25, r25
    123a:	e8 0f       	add	r30, r24
    123c:	f9 1f       	adc	r31, r25
    123e:	d1 83       	std	Z+1, r29	; 0x01
    1240:	c0 83       	st	Z, r28
    1242:	7d c0       	rjmp	.+250    	; 0x133e <_ZN6Ticker3AddEPFvvE11TickerDelay+0x22a>
	size_t d_capacity; // Stores allocated capacity
	Data *d_data; // Stores data
	public:
	bool contains(Data const &d) volatile{
 for(size_t i=0; i<d_size; i++){
	if(d==d_data[i])return true;
    1244:	e0 91 de 02 	lds	r30, 0x02DE	; 0x8002de <_ZN6Ticker22tickerCallbacksSecondsE+0x4>
    1248:	f0 91 df 02 	lds	r31, 0x02DF	; 0x8002df <_ZN6Ticker22tickerCallbacksSecondsE+0x5>
    124c:	80 81       	ld	r24, Z
    124e:	91 81       	ldd	r25, Z+1	; 0x01
    1250:	c8 17       	cp	r28, r24
    1252:	d9 07       	cpc	r29, r25
    1254:	09 f4       	brne	.+2      	; 0x1258 <_ZN6Ticker3AddEPFvvE11TickerDelay+0x144>
    1256:	73 c0       	rjmp	.+230    	; 0x133e <_ZN6Ticker3AddEPFvvE11TickerDelay+0x22a>
    1258:	80 e0       	ldi	r24, 0x00	; 0
    125a:	90 e0       	ldi	r25, 0x00	; 0
	size_t d_size; // Stores no. of actually stored objects
	size_t d_capacity; // Stores allocated capacity
	Data *d_data; // Stores data
	public:
	bool contains(Data const &d) volatile{
 for(size_t i=0; i<d_size; i++){
    125c:	aa ed       	ldi	r26, 0xDA	; 218
    125e:	b2 e0       	ldi	r27, 0x02	; 2
    1260:	0f c0       	rjmp	.+30     	; 0x1280 <_ZN6Ticker3AddEPFvvE11TickerDelay+0x16c>
	if(d==d_data[i])return true;
    1262:	14 96       	adiw	r26, 0x04	; 4
    1264:	ed 91       	ld	r30, X+
    1266:	fc 91       	ld	r31, X
    1268:	15 97       	sbiw	r26, 0x05	; 5
    126a:	9c 01       	movw	r18, r24
    126c:	22 0f       	add	r18, r18
    126e:	33 1f       	adc	r19, r19
    1270:	e2 0f       	add	r30, r18
    1272:	f3 1f       	adc	r31, r19
    1274:	20 81       	ld	r18, Z
    1276:	31 81       	ldd	r19, Z+1	; 0x01
    1278:	2c 17       	cp	r18, r28
    127a:	3d 07       	cpc	r19, r29
    127c:	09 f4       	brne	.+2      	; 0x1280 <_ZN6Ticker3AddEPFvvE11TickerDelay+0x16c>
    127e:	5f c0       	rjmp	.+190    	; 0x133e <_ZN6Ticker3AddEPFvvE11TickerDelay+0x22a>
	size_t d_size; // Stores no. of actually stored objects
	size_t d_capacity; // Stores allocated capacity
	Data *d_data; // Stores data
	public:
	bool contains(Data const &d) volatile{
 for(size_t i=0; i<d_size; i++){
    1280:	01 96       	adiw	r24, 0x01	; 1
    1282:	2d 91       	ld	r18, X+
    1284:	3c 91       	ld	r19, X
    1286:	11 97       	sbiw	r26, 0x01	; 1
    1288:	82 17       	cp	r24, r18
    128a:	93 07       	cpc	r25, r19
    128c:	50 f3       	brcs	.-44     	; 0x1262 <_ZN6Ticker3AddEPFvvE11TickerDelay+0x14e>
    128e:	4d c0       	rjmp	.+154    	; 0x132a <_ZN6Ticker3AddEPFvvE11TickerDelay+0x216>
	void push_back(Data const &x) volatile { if (d_capacity == d_size) resize(); d_data[d_size++] = x; }; // Adds new value. If needed, allocates more space
	size_t size() volatile const { return d_size; }; // Size getter
	Data const &operator[](size_t idx)volatile const { return d_data[idx]; }; // Const getter
	Data &operator[](size_t idx)volatile { return d_data[idx]; }; // Changeable getter
	private:
	void resize() volatile { d_capacity = d_capacity ? d_capacity*2 : 1; Data *newdata = (Data *)malloc(d_capacity*sizeof(Data)); memcpy(newdata, d_data, d_size * sizeof(Data)); free(d_data); d_data = newdata; };// Allocates double the old space
    1290:	80 91 dc 02 	lds	r24, 0x02DC	; 0x8002dc <_ZN6Ticker22tickerCallbacksSecondsE+0x2>
    1294:	90 91 dd 02 	lds	r25, 0x02DD	; 0x8002dd <_ZN6Ticker22tickerCallbacksSecondsE+0x3>
    1298:	89 2b       	or	r24, r25
    129a:	39 f0       	breq	.+14     	; 0x12aa <_ZN6Ticker3AddEPFvvE11TickerDelay+0x196>
    129c:	80 91 dc 02 	lds	r24, 0x02DC	; 0x8002dc <_ZN6Ticker22tickerCallbacksSecondsE+0x2>
    12a0:	90 91 dd 02 	lds	r25, 0x02DD	; 0x8002dd <_ZN6Ticker22tickerCallbacksSecondsE+0x3>
    12a4:	88 0f       	add	r24, r24
    12a6:	99 1f       	adc	r25, r25
    12a8:	02 c0       	rjmp	.+4      	; 0x12ae <_ZN6Ticker3AddEPFvvE11TickerDelay+0x19a>
    12aa:	81 e0       	ldi	r24, 0x01	; 1
    12ac:	90 e0       	ldi	r25, 0x00	; 0
    12ae:	0a ed       	ldi	r16, 0xDA	; 218
    12b0:	12 e0       	ldi	r17, 0x02	; 2
    12b2:	f8 01       	movw	r30, r16
    12b4:	93 83       	std	Z+3, r25	; 0x03
    12b6:	82 83       	std	Z+2, r24	; 0x02
    12b8:	82 81       	ldd	r24, Z+2	; 0x02
    12ba:	93 81       	ldd	r25, Z+3	; 0x03
    12bc:	88 0f       	add	r24, r24
    12be:	99 1f       	adc	r25, r25
    12c0:	0e 94 14 18 	call	0x3028	; 0x3028 <malloc>
    12c4:	7c 01       	movw	r14, r24
    12c6:	f8 01       	movw	r30, r16
    12c8:	40 81       	ld	r20, Z
    12ca:	51 81       	ldd	r21, Z+1	; 0x01
    12cc:	64 81       	ldd	r22, Z+4	; 0x04
    12ce:	75 81       	ldd	r23, Z+5	; 0x05
    12d0:	44 0f       	add	r20, r20
    12d2:	55 1f       	adc	r21, r21
    12d4:	0e 94 4e 19 	call	0x329c	; 0x329c <memcpy>
    12d8:	f8 01       	movw	r30, r16
    12da:	84 81       	ldd	r24, Z+4	; 0x04
    12dc:	95 81       	ldd	r25, Z+5	; 0x05
    12de:	0e 94 ac 18 	call	0x3158	; 0x3158 <free>
    12e2:	f8 01       	movw	r30, r16
    12e4:	f5 82       	std	Z+5, r15	; 0x05
    12e6:	e4 82       	std	Z+4, r14	; 0x04

	}; // Default constructor
	volatile_vector(volatile_vector const &other) : d_size(other.d_size), d_capacity(other.d_capacity), d_data(0) { d_data = (Data *)malloc(d_capacity*sizeof(Data)); memcpy(d_data, other.d_data, d_size*sizeof(Data)); }; // Copy constuctor
	~volatile_vector() { free(d_data); }; // Destructor
	volatile_vector &operator=(volatile_vector const &other) { free(d_data); d_size = other.d_size; d_capacity = other.d_capacity; d_data = (Data *)malloc(d_capacity*sizeof(Data)); memcpy(d_data, other.d_data, d_size*sizeof(Data)); return *this; }; // Needed for memory management
	void push_back(Data const &x) volatile { if (d_capacity == d_size) resize(); d_data[d_size++] = x; }; // Adds new value. If needed, allocates more space
    12e8:	aa ed       	ldi	r26, 0xDA	; 218
    12ea:	b2 e0       	ldi	r27, 0x02	; 2
    12ec:	14 96       	adiw	r26, 0x04	; 4
    12ee:	ed 91       	ld	r30, X+
    12f0:	fc 91       	ld	r31, X
    12f2:	15 97       	sbiw	r26, 0x05	; 5
    12f4:	8d 91       	ld	r24, X+
    12f6:	9c 91       	ld	r25, X
    12f8:	11 97       	sbiw	r26, 0x01	; 1
    12fa:	9c 01       	movw	r18, r24
    12fc:	2f 5f       	subi	r18, 0xFF	; 255
    12fe:	3f 4f       	sbci	r19, 0xFF	; 255
    1300:	11 96       	adiw	r26, 0x01	; 1
    1302:	3c 93       	st	X, r19
    1304:	2e 93       	st	-X, r18
    1306:	88 0f       	add	r24, r24
    1308:	99 1f       	adc	r25, r25
    130a:	e8 0f       	add	r30, r24
    130c:	f9 1f       	adc	r31, r25
    130e:	d1 83       	std	Z+1, r29	; 0x01
    1310:	c0 83       	st	Z, r28
		if(!Ticker::tickerCallbacksMilliseconds.contains(callback)){
		Ticker::tickerCallbacksMilliseconds.push_back(callback);}
	}
	else
	if(!Ticker::tickerCallbacksSeconds.contains(callback))tickerCallbacksSeconds.push_back(callback);
}
    1312:	15 c0       	rjmp	.+42     	; 0x133e <_ZN6Ticker3AddEPFvvE11TickerDelay+0x22a>
    1314:	e0 ee       	ldi	r30, 0xE0	; 224
    1316:	f2 e0       	ldi	r31, 0x02	; 2
    1318:	22 81       	ldd	r18, Z+2	; 0x02
    131a:	33 81       	ldd	r19, Z+3	; 0x03
    131c:	80 81       	ld	r24, Z
    131e:	91 81       	ldd	r25, Z+1	; 0x01
    1320:	28 17       	cp	r18, r24
    1322:	39 07       	cpc	r19, r25
    1324:	09 f0       	breq	.+2      	; 0x1328 <_ZN6Ticker3AddEPFvvE11TickerDelay+0x214>
    1326:	78 cf       	rjmp	.-272    	; 0x1218 <_ZN6Ticker3AddEPFvvE11TickerDelay+0x104>
    1328:	4b cf       	rjmp	.-362    	; 0x11c0 <_ZN6Ticker3AddEPFvvE11TickerDelay+0xac>
    132a:	ea ed       	ldi	r30, 0xDA	; 218
    132c:	f2 e0       	ldi	r31, 0x02	; 2
    132e:	22 81       	ldd	r18, Z+2	; 0x02
    1330:	33 81       	ldd	r19, Z+3	; 0x03
    1332:	80 81       	ld	r24, Z
    1334:	91 81       	ldd	r25, Z+1	; 0x01
    1336:	28 17       	cp	r18, r24
    1338:	39 07       	cpc	r19, r25
    133a:	b1 f6       	brne	.-84     	; 0x12e8 <_ZN6Ticker3AddEPFvvE11TickerDelay+0x1d4>
    133c:	a9 cf       	rjmp	.-174    	; 0x1290 <_ZN6Ticker3AddEPFvvE11TickerDelay+0x17c>
    133e:	df 91       	pop	r29
    1340:	cf 91       	pop	r28
    1342:	1f 91       	pop	r17
    1344:	0f 91       	pop	r16
    1346:	ff 90       	pop	r15
    1348:	ef 90       	pop	r14
    134a:	08 95       	ret

0000134c <__vector_14>:
ISR(TIMER0_COMPA_vect)
{
    134c:	1f 92       	push	r1
    134e:	0f 92       	push	r0
    1350:	0f b6       	in	r0, 0x3f	; 63
    1352:	0f 92       	push	r0
    1354:	11 24       	eor	r1, r1
    1356:	0f 93       	push	r16
    1358:	1f 93       	push	r17
    135a:	2f 93       	push	r18
    135c:	3f 93       	push	r19
    135e:	4f 93       	push	r20
    1360:	5f 93       	push	r21
    1362:	6f 93       	push	r22
    1364:	7f 93       	push	r23
    1366:	8f 93       	push	r24
    1368:	9f 93       	push	r25
    136a:	af 93       	push	r26
    136c:	bf 93       	push	r27
    136e:	cf 93       	push	r28
    1370:	df 93       	push	r29
    1372:	ef 93       	push	r30
    1374:	ff 93       	push	r31
	cli();
    1376:	f8 94       	cli
	size_t size() volatile const { return d_size; }; // Size getter
    1378:	80 91 e0 02 	lds	r24, 0x02E0	; 0x8002e0 <_ZN6Ticker27tickerCallbacksMillisecondsE>
    137c:	90 91 e1 02 	lds	r25, 0x02E1	; 0x8002e1 <_ZN6Ticker27tickerCallbacksMillisecondsE+0x1>
	for(int i=0; i<Ticker::tickerCallbacksMilliseconds.size(); i++)
    1380:	89 2b       	or	r24, r25
    1382:	c9 f0       	breq	.+50     	; 0x13b6 <__vector_14+0x6a>
    1384:	c0 e0       	ldi	r28, 0x00	; 0
    1386:	d0 e0       	ldi	r29, 0x00	; 0
	Data const &operator[](size_t idx)volatile const { return d_data[idx]; }; // Const getter
	Data &operator[](size_t idx)volatile { return d_data[idx]; }; // Changeable getter
    1388:	00 ee       	ldi	r16, 0xE0	; 224
    138a:	12 e0       	ldi	r17, 0x02	; 2
    138c:	d8 01       	movw	r26, r16
    138e:	14 96       	adiw	r26, 0x04	; 4
    1390:	ed 91       	ld	r30, X+
    1392:	fc 91       	ld	r31, X
    1394:	15 97       	sbiw	r26, 0x05	; 5
	{
		Ticker::tickerCallbacksMilliseconds[i]();
    1396:	ce 01       	movw	r24, r28
    1398:	88 0f       	add	r24, r24
    139a:	99 1f       	adc	r25, r25
    139c:	e8 0f       	add	r30, r24
    139e:	f9 1f       	adc	r31, r25
    13a0:	01 90       	ld	r0, Z+
    13a2:	f0 81       	ld	r31, Z
    13a4:	e0 2d       	mov	r30, r0
    13a6:	09 95       	icall
	if(!Ticker::tickerCallbacksSeconds.contains(callback))tickerCallbacksSeconds.push_back(callback);
}
ISR(TIMER0_COMPA_vect)
{
	cli();
	for(int i=0; i<Ticker::tickerCallbacksMilliseconds.size(); i++)
    13a8:	21 96       	adiw	r28, 0x01	; 1
	}; // Default constructor
	volatile_vector(volatile_vector const &other) : d_size(other.d_size), d_capacity(other.d_capacity), d_data(0) { d_data = (Data *)malloc(d_capacity*sizeof(Data)); memcpy(d_data, other.d_data, d_size*sizeof(Data)); }; // Copy constuctor
	~volatile_vector() { free(d_data); }; // Destructor
	volatile_vector &operator=(volatile_vector const &other) { free(d_data); d_size = other.d_size; d_capacity = other.d_capacity; d_data = (Data *)malloc(d_capacity*sizeof(Data)); memcpy(d_data, other.d_data, d_size*sizeof(Data)); return *this; }; // Needed for memory management
	void push_back(Data const &x) volatile { if (d_capacity == d_size) resize(); d_data[d_size++] = x; }; // Adds new value. If needed, allocates more space
	size_t size() volatile const { return d_size; }; // Size getter
    13aa:	f8 01       	movw	r30, r16
    13ac:	80 81       	ld	r24, Z
    13ae:	91 81       	ldd	r25, Z+1	; 0x01
    13b0:	c8 17       	cp	r28, r24
    13b2:	d9 07       	cpc	r29, r25
    13b4:	58 f3       	brcs	.-42     	; 0x138c <__vector_14+0x40>
	{
		Ticker::tickerCallbacksMilliseconds[i]();
	}
	sei();
    13b6:	78 94       	sei
}
    13b8:	ff 91       	pop	r31
    13ba:	ef 91       	pop	r30
    13bc:	df 91       	pop	r29
    13be:	cf 91       	pop	r28
    13c0:	bf 91       	pop	r27
    13c2:	af 91       	pop	r26
    13c4:	9f 91       	pop	r25
    13c6:	8f 91       	pop	r24
    13c8:	7f 91       	pop	r23
    13ca:	6f 91       	pop	r22
    13cc:	5f 91       	pop	r21
    13ce:	4f 91       	pop	r20
    13d0:	3f 91       	pop	r19
    13d2:	2f 91       	pop	r18
    13d4:	1f 91       	pop	r17
    13d6:	0f 91       	pop	r16
    13d8:	0f 90       	pop	r0
    13da:	0f be       	out	0x3f, r0	; 63
    13dc:	0f 90       	pop	r0
    13de:	1f 90       	pop	r1
    13e0:	18 95       	reti

000013e2 <_GLOBAL__sub_I__Znwj>:
 for(size_t i=0; i<d_size; i++){
	if(d==d_data[i])return true;
 }
 return false;
	}
	volatile_vector() : d_size(0), d_capacity(0), d_data(0) {
    13e2:	e0 ee       	ldi	r30, 0xE0	; 224
    13e4:	f2 e0       	ldi	r31, 0x02	; 2
    13e6:	11 82       	std	Z+1, r1	; 0x01
    13e8:	10 82       	st	Z, r1
    13ea:	13 82       	std	Z+3, r1	; 0x03
    13ec:	12 82       	std	Z+2, r1	; 0x02
    13ee:	15 82       	std	Z+5, r1	; 0x05
    13f0:	14 82       	std	Z+4, r1	; 0x04
    13f2:	ea ed       	ldi	r30, 0xDA	; 218
    13f4:	f2 e0       	ldi	r31, 0x02	; 2
    13f6:	11 82       	std	Z+1, r1	; 0x01
    13f8:	10 82       	st	Z, r1
    13fa:	13 82       	std	Z+3, r1	; 0x03
    13fc:	12 82       	std	Z+2, r1	; 0x02
    13fe:	15 82       	std	Z+5, r1	; 0x05
    1400:	14 82       	std	Z+4, r1	; 0x04
    1402:	08 95       	ret

00001404 <_GLOBAL__sub_D__Znwj>:

	}; // Default constructor
	volatile_vector(volatile_vector const &other) : d_size(other.d_size), d_capacity(other.d_capacity), d_data(0) { d_data = (Data *)malloc(d_capacity*sizeof(Data)); memcpy(d_data, other.d_data, d_size*sizeof(Data)); }; // Copy constuctor
	~volatile_vector() { free(d_data); }; // Destructor
    1404:	80 91 de 02 	lds	r24, 0x02DE	; 0x8002de <_ZN6Ticker22tickerCallbacksSecondsE+0x4>
    1408:	90 91 df 02 	lds	r25, 0x02DF	; 0x8002df <_ZN6Ticker22tickerCallbacksSecondsE+0x5>
    140c:	0e 94 ac 18 	call	0x3158	; 0x3158 <free>
    1410:	80 91 e4 02 	lds	r24, 0x02E4	; 0x8002e4 <_ZN6Ticker27tickerCallbacksMillisecondsE+0x4>
    1414:	90 91 e5 02 	lds	r25, 0x02E5	; 0x8002e5 <_ZN6Ticker27tickerCallbacksMillisecondsE+0x5>
    1418:	0e 94 ac 18 	call	0x3158	; 0x3158 <free>
    141c:	08 95       	ret

0000141e <_ZL11parseStringPc>:
	json_t const* field = json_getProperty( obj, property );
	if ( !field ) return 0;
        jsonType_t type = json_getType( field );
        if ( JSON_ARRAY >= type ) return 0;
	return json_getValue( field );
}
    141e:	cf 93       	push	r28
    1420:	df 93       	push	r29
    1422:	ec 01       	movw	r28, r24
    1424:	98 81       	ld	r25, Y
    1426:	90 32       	cpi	r25, 0x20	; 32
    1428:	08 f4       	brcc	.+2      	; 0x142c <_ZL11parseStringPc+0xe>
    142a:	57 c0       	rjmp	.+174    	; 0x14da <_ZL11parseStringPc+0xbc>
    142c:	92 32       	cpi	r25, 0x22	; 34
    142e:	31 f0       	breq	.+12     	; 0x143c <_ZL11parseStringPc+0x1e>
    1430:	de 01       	movw	r26, r28
    1432:	4f e3       	ldi	r20, 0x3F	; 63
    1434:	08 c0       	rjmp	.+16     	; 0x1446 <_ZL11parseStringPc+0x28>
    1436:	92 32       	cpi	r25, 0x22	; 34
    1438:	31 f4       	brne	.+12     	; 0x1446 <_ZL11parseStringPc+0x28>
    143a:	01 c0       	rjmp	.+2      	; 0x143e <_ZL11parseStringPc+0x20>
    143c:	de 01       	movw	r26, r28
    143e:	1c 92       	st	X, r1
    1440:	ce 01       	movw	r24, r28
    1442:	01 96       	adiw	r24, 0x01	; 1
    1444:	5b c0       	rjmp	.+182    	; 0x14fc <_ZL11parseStringPc+0xde>
    1446:	9c 35       	cpi	r25, 0x5C	; 92
    1448:	e1 f5       	brne	.+120    	; 0x14c2 <_ZL11parseStringPc+0xa4>
    144a:	99 81       	ldd	r25, Y+1	; 0x01
    144c:	95 37       	cpi	r25, 0x75	; 117
    144e:	19 f0       	breq	.+6      	; 0x1456 <_ZL11parseStringPc+0x38>
    1450:	92 32       	cpi	r25, 0x22	; 34
    1452:	c9 f4       	brne	.+50     	; 0x1486 <_ZL11parseStringPc+0x68>
    1454:	20 c0       	rjmp	.+64     	; 0x1496 <_ZL11parseStringPc+0x78>
    1456:	fe 01       	movw	r30, r28
    1458:	32 96       	adiw	r30, 0x02	; 2
    145a:	9e 01       	movw	r18, r28
    145c:	2a 5f       	subi	r18, 0xFA	; 250
    145e:	3f 4f       	sbci	r19, 0xFF	; 255
    1460:	81 91       	ld	r24, Z+
    1462:	80 33       	cpi	r24, 0x30	; 48
    1464:	e8 f1       	brcs	.+122    	; 0x14e0 <_ZL11parseStringPc+0xc2>
    1466:	8a 33       	cpi	r24, 0x3A	; 58
    1468:	38 f0       	brcs	.+14     	; 0x1478 <_ZL11parseStringPc+0x5a>
    146a:	81 34       	cpi	r24, 0x41	; 65
    146c:	e0 f1       	brcs	.+120    	; 0x14e6 <_ZL11parseStringPc+0xc8>
    146e:	87 34       	cpi	r24, 0x47	; 71
    1470:	18 f0       	brcs	.+6      	; 0x1478 <_ZL11parseStringPc+0x5a>
    1472:	81 56       	subi	r24, 0x61	; 97
    1474:	86 30       	cpi	r24, 0x06	; 6
    1476:	d0 f5       	brcc	.+116    	; 0x14ec <_ZL11parseStringPc+0xce>
    1478:	e2 17       	cp	r30, r18
    147a:	f3 07       	cpc	r31, r19
    147c:	89 f7       	brne	.-30     	; 0x1460 <_ZL11parseStringPc+0x42>
    147e:	4c 93       	st	X, r20
    1480:	fe 01       	movw	r30, r28
    1482:	35 96       	adiw	r30, 0x05	; 5
    1484:	20 c0       	rjmp	.+64     	; 0x14c6 <_ZL11parseStringPc+0xa8>
    1486:	e2 e7       	ldi	r30, 0x72	; 114
    1488:	f1 e0       	ldi	r31, 0x01	; 1
    148a:	21 e0       	ldi	r18, 0x01	; 1
    148c:	30 e0       	ldi	r19, 0x00	; 0
    148e:	82 81       	ldd	r24, Z+2	; 0x02
    1490:	98 13       	cpse	r25, r24
    1492:	0c c0       	rjmp	.+24     	; 0x14ac <_ZL11parseStringPc+0x8e>
    1494:	02 c0       	rjmp	.+4      	; 0x149a <_ZL11parseStringPc+0x7c>
    1496:	20 e0       	ldi	r18, 0x00	; 0
    1498:	30 e0       	ldi	r19, 0x00	; 0
    149a:	22 0f       	add	r18, r18
    149c:	33 1f       	adc	r19, r19
    149e:	f9 01       	movw	r30, r18
    14a0:	ee 58       	subi	r30, 0x8E	; 142
    14a2:	fe 4f       	sbci	r31, 0xFE	; 254
    14a4:	81 81       	ldd	r24, Z+1	; 0x01
    14a6:	81 11       	cpse	r24, r1
    14a8:	08 c0       	rjmp	.+16     	; 0x14ba <_ZL11parseStringPc+0x9c>
    14aa:	23 c0       	rjmp	.+70     	; 0x14f2 <_ZL11parseStringPc+0xd4>
    14ac:	2f 5f       	subi	r18, 0xFF	; 255
    14ae:	3f 4f       	sbci	r19, 0xFF	; 255
    14b0:	32 96       	adiw	r30, 0x02	; 2
    14b2:	28 30       	cpi	r18, 0x08	; 8
    14b4:	31 05       	cpc	r19, r1
    14b6:	59 f7       	brne	.-42     	; 0x148e <_ZL11parseStringPc+0x70>
    14b8:	1f c0       	rjmp	.+62     	; 0x14f8 <_ZL11parseStringPc+0xda>
    14ba:	fe 01       	movw	r30, r28
    14bc:	31 96       	adiw	r30, 0x01	; 1
    14be:	8c 93       	st	X, r24
    14c0:	02 c0       	rjmp	.+4      	; 0x14c6 <_ZL11parseStringPc+0xa8>
    14c2:	9c 93       	st	X, r25
    14c4:	fe 01       	movw	r30, r28
    14c6:	ef 01       	movw	r28, r30
    14c8:	21 96       	adiw	r28, 0x01	; 1
    14ca:	11 96       	adiw	r26, 0x01	; 1
    14cc:	91 81       	ldd	r25, Z+1	; 0x01
    14ce:	90 32       	cpi	r25, 0x20	; 32
    14d0:	08 f0       	brcs	.+2      	; 0x14d4 <_ZL11parseStringPc+0xb6>
    14d2:	b1 cf       	rjmp	.-158    	; 0x1436 <_ZL11parseStringPc+0x18>
    14d4:	80 e0       	ldi	r24, 0x00	; 0
    14d6:	90 e0       	ldi	r25, 0x00	; 0
    14d8:	11 c0       	rjmp	.+34     	; 0x14fc <_ZL11parseStringPc+0xde>
    14da:	80 e0       	ldi	r24, 0x00	; 0
    14dc:	90 e0       	ldi	r25, 0x00	; 0
    14de:	0e c0       	rjmp	.+28     	; 0x14fc <_ZL11parseStringPc+0xde>
    14e0:	80 e0       	ldi	r24, 0x00	; 0
    14e2:	90 e0       	ldi	r25, 0x00	; 0
    14e4:	0b c0       	rjmp	.+22     	; 0x14fc <_ZL11parseStringPc+0xde>
    14e6:	80 e0       	ldi	r24, 0x00	; 0
    14e8:	90 e0       	ldi	r25, 0x00	; 0
    14ea:	08 c0       	rjmp	.+16     	; 0x14fc <_ZL11parseStringPc+0xde>
    14ec:	80 e0       	ldi	r24, 0x00	; 0
    14ee:	90 e0       	ldi	r25, 0x00	; 0
    14f0:	05 c0       	rjmp	.+10     	; 0x14fc <_ZL11parseStringPc+0xde>
    14f2:	80 e0       	ldi	r24, 0x00	; 0
    14f4:	90 e0       	ldi	r25, 0x00	; 0
    14f6:	02 c0       	rjmp	.+4      	; 0x14fc <_ZL11parseStringPc+0xde>
    14f8:	80 e0       	ldi	r24, 0x00	; 0
    14fa:	90 e0       	ldi	r25, 0x00	; 0
    14fc:	df 91       	pop	r29
    14fe:	cf 91       	pop	r28
    1500:	08 95       	ret

00001502 <_ZL11isOneOfThemcPKc>:
    1502:	fb 01       	movw	r30, r22
    1504:	91 91       	ld	r25, Z+
    1506:	99 23       	and	r25, r25
    1508:	21 f0       	breq	.+8      	; 0x1512 <_ZL11isOneOfThemcPKc+0x10>
    150a:	98 13       	cpse	r25, r24
    150c:	fb cf       	rjmp	.-10     	; 0x1504 <_ZL11isOneOfThemcPKc+0x2>
    150e:	81 e0       	ldi	r24, 0x01	; 1
    1510:	08 95       	ret
    1512:	80 e0       	ldi	r24, 0x00	; 0
    1514:	08 95       	ret

00001516 <_ZL7goWhilePcPKc>:
    1516:	0f 93       	push	r16
    1518:	1f 93       	push	r17
    151a:	cf 93       	push	r28
    151c:	df 93       	push	r29
    151e:	ec 01       	movw	r28, r24
    1520:	8b 01       	movw	r16, r22
    1522:	88 81       	ld	r24, Y
    1524:	88 23       	and	r24, r24
    1526:	59 f0       	breq	.+22     	; 0x153e <_ZL7goWhilePcPKc+0x28>
    1528:	b8 01       	movw	r22, r16
    152a:	0e 94 81 0a 	call	0x1502	; 0x1502 <_ZL11isOneOfThemcPKc>
    152e:	88 23       	and	r24, r24
    1530:	49 f0       	breq	.+18     	; 0x1544 <_ZL7goWhilePcPKc+0x2e>
    1532:	21 96       	adiw	r28, 0x01	; 1
    1534:	88 81       	ld	r24, Y
    1536:	81 11       	cpse	r24, r1
    1538:	f7 cf       	rjmp	.-18     	; 0x1528 <_ZL7goWhilePcPKc+0x12>
    153a:	90 e0       	ldi	r25, 0x00	; 0
    153c:	05 c0       	rjmp	.+10     	; 0x1548 <_ZL7goWhilePcPKc+0x32>
    153e:	80 e0       	ldi	r24, 0x00	; 0
    1540:	90 e0       	ldi	r25, 0x00	; 0
    1542:	02 c0       	rjmp	.+4      	; 0x1548 <_ZL7goWhilePcPKc+0x32>
    1544:	8c 2f       	mov	r24, r28
    1546:	9d 2f       	mov	r25, r29
    1548:	df 91       	pop	r29
    154a:	cf 91       	pop	r28
    154c:	1f 91       	pop	r17
    154e:	0f 91       	pop	r16
    1550:	08 95       	ret

00001552 <_ZL5goNumPc>:
    1552:	fc 01       	movw	r30, r24
    1554:	80 81       	ld	r24, Z
    1556:	88 23       	and	r24, r24
    1558:	81 f0       	breq	.+32     	; 0x157a <_ZL5goNumPc+0x28>
    155a:	80 53       	subi	r24, 0x30	; 48
    155c:	8a 30       	cpi	r24, 0x0A	; 10
    155e:	80 f4       	brcc	.+32     	; 0x1580 <_ZL5goNumPc+0x2e>
    1560:	31 96       	adiw	r30, 0x01	; 1
    1562:	03 c0       	rjmp	.+6      	; 0x156a <_ZL5goNumPc+0x18>
    1564:	20 53       	subi	r18, 0x30	; 48
    1566:	2a 30       	cpi	r18, 0x0A	; 10
    1568:	68 f4       	brcc	.+26     	; 0x1584 <_ZL5goNumPc+0x32>
    156a:	8e 2f       	mov	r24, r30
    156c:	9f 2f       	mov	r25, r31
    156e:	21 91       	ld	r18, Z+
    1570:	21 11       	cpse	r18, r1
    1572:	f8 cf       	rjmp	.-16     	; 0x1564 <_ZL5goNumPc+0x12>
    1574:	80 e0       	ldi	r24, 0x00	; 0
    1576:	90 e0       	ldi	r25, 0x00	; 0
    1578:	08 95       	ret
    157a:	80 e0       	ldi	r24, 0x00	; 0
    157c:	90 e0       	ldi	r25, 0x00	; 0
    157e:	08 95       	ret
    1580:	8e 2f       	mov	r24, r30
    1582:	9f 2f       	mov	r25, r31
    1584:	08 95       	ret

00001586 <_ZL16isEndOfPrimitivec>:
    1586:	cf 93       	push	r28
    1588:	8c 32       	cpi	r24, 0x2C	; 44
    158a:	69 f0       	breq	.+26     	; 0x15a6 <_ZL16isEndOfPrimitivec+0x20>
    158c:	c8 2f       	mov	r28, r24
    158e:	60 e3       	ldi	r22, 0x30	; 48
    1590:	71 e0       	ldi	r23, 0x01	; 1
    1592:	0e 94 81 0a 	call	0x1502	; 0x1502 <_ZL11isOneOfThemcPKc>
    1596:	81 11       	cpse	r24, r1
    1598:	07 c0       	rjmp	.+14     	; 0x15a8 <_ZL16isEndOfPrimitivec+0x22>
    159a:	66 e3       	ldi	r22, 0x36	; 54
    159c:	71 e0       	ldi	r23, 0x01	; 1
    159e:	8c 2f       	mov	r24, r28
    15a0:	0e 94 81 0a 	call	0x1502	; 0x1502 <_ZL11isOneOfThemcPKc>
    15a4:	01 c0       	rjmp	.+2      	; 0x15a8 <_ZL16isEndOfPrimitivec+0x22>
    15a6:	81 e0       	ldi	r24, 0x01	; 1
    15a8:	cf 91       	pop	r28
    15aa:	08 95       	ret

000015ac <_ZL14primitiveValuePcP6json_sPKc10jsonType_t>:
    15ac:	ff 92       	push	r15
    15ae:	0f 93       	push	r16
    15b0:	1f 93       	push	r17
    15b2:	cf 93       	push	r28
    15b4:	df 93       	push	r29
    15b6:	8b 01       	movw	r16, r22
    15b8:	f2 2e       	mov	r15, r18
    15ba:	e4 2f       	mov	r30, r20
    15bc:	f5 2f       	mov	r31, r21
    15be:	ec 01       	movw	r28, r24
    15c0:	21 91       	ld	r18, Z+
    15c2:	22 23       	and	r18, r18
    15c4:	29 f0       	breq	.+10     	; 0x15d0 <_ZL14primitiveValuePcP6json_sPKc10jsonType_t+0x24>
    15c6:	01 96       	adiw	r24, 0x01	; 1
    15c8:	38 81       	ld	r19, Y
    15ca:	23 17       	cp	r18, r19
    15cc:	c1 f3       	breq	.-16     	; 0x15be <_ZL14primitiveValuePcP6json_sPKc10jsonType_t+0x12>
    15ce:	15 c0       	rjmp	.+42     	; 0x15fa <_ZL14primitiveValuePcP6json_sPKc10jsonType_t+0x4e>
    15d0:	89 2b       	or	r24, r25
    15d2:	b1 f0       	breq	.+44     	; 0x1600 <_ZL14primitiveValuePcP6json_sPKc10jsonType_t+0x54>
    15d4:	88 81       	ld	r24, Y
    15d6:	0e 94 c3 0a 	call	0x1586	; 0x1586 <_ZL16isEndOfPrimitivec>
    15da:	88 23       	and	r24, r24
    15dc:	a1 f0       	breq	.+40     	; 0x1606 <_ZL14primitiveValuePcP6json_sPKc10jsonType_t+0x5a>
    15de:	66 e3       	ldi	r22, 0x36	; 54
    15e0:	71 e0       	ldi	r23, 0x01	; 1
    15e2:	88 81       	ld	r24, Y
    15e4:	0e 94 81 0a 	call	0x1502	; 0x1502 <_ZL11isOneOfThemcPKc>
    15e8:	81 11       	cpse	r24, r1
    15ea:	02 c0       	rjmp	.+4      	; 0x15f0 <_ZL14primitiveValuePcP6json_sPKc10jsonType_t+0x44>
    15ec:	18 82       	st	Y, r1
    15ee:	21 96       	adiw	r28, 0x01	; 1
    15f0:	f8 01       	movw	r30, r16
    15f2:	f6 82       	std	Z+6, r15	; 0x06
    15f4:	8c 2f       	mov	r24, r28
    15f6:	9d 2f       	mov	r25, r29
    15f8:	08 c0       	rjmp	.+16     	; 0x160a <_ZL14primitiveValuePcP6json_sPKc10jsonType_t+0x5e>
    15fa:	80 e0       	ldi	r24, 0x00	; 0
    15fc:	90 e0       	ldi	r25, 0x00	; 0
    15fe:	05 c0       	rjmp	.+10     	; 0x160a <_ZL14primitiveValuePcP6json_sPKc10jsonType_t+0x5e>
    1600:	80 e0       	ldi	r24, 0x00	; 0
    1602:	90 e0       	ldi	r25, 0x00	; 0
    1604:	02 c0       	rjmp	.+4      	; 0x160a <_ZL14primitiveValuePcP6json_sPKc10jsonType_t+0x5e>
    1606:	80 e0       	ldi	r24, 0x00	; 0
    1608:	90 e0       	ldi	r25, 0x00	; 0
    160a:	df 91       	pop	r29
    160c:	cf 91       	pop	r28
    160e:	1f 91       	pop	r17
    1610:	0f 91       	pop	r16
    1612:	ff 90       	pop	r15
    1614:	08 95       	ret

00001616 <json_getProperty>:
    1616:	0f 93       	push	r16
    1618:	1f 93       	push	r17
    161a:	cf 93       	push	r28
    161c:	df 93       	push	r29
    161e:	8b 01       	movw	r16, r22
    1620:	fc 01       	movw	r30, r24
    1622:	c4 81       	ldd	r28, Z+4	; 0x04
    1624:	d5 81       	ldd	r29, Z+5	; 0x05
    1626:	20 97       	sbiw	r28, 0x00	; 0
    1628:	89 f0       	breq	.+34     	; 0x164c <json_getProperty+0x36>
    162a:	8a 81       	ldd	r24, Y+2	; 0x02
    162c:	9b 81       	ldd	r25, Y+3	; 0x03
    162e:	00 97       	sbiw	r24, 0x00	; 0
    1630:	29 f0       	breq	.+10     	; 0x163c <json_getProperty+0x26>
    1632:	b8 01       	movw	r22, r16
    1634:	0e 94 57 19 	call	0x32ae	; 0x32ae <strcmp>
    1638:	89 2b       	or	r24, r25
    163a:	59 f0       	breq	.+22     	; 0x1652 <json_getProperty+0x3c>
    163c:	09 90       	ld	r0, Y+
    163e:	d8 81       	ld	r29, Y
    1640:	c0 2d       	mov	r28, r0
    1642:	20 97       	sbiw	r28, 0x00	; 0
    1644:	91 f7       	brne	.-28     	; 0x162a <json_getProperty+0x14>
    1646:	80 e0       	ldi	r24, 0x00	; 0
    1648:	90 e0       	ldi	r25, 0x00	; 0
    164a:	05 c0       	rjmp	.+10     	; 0x1656 <json_getProperty+0x40>
    164c:	80 e0       	ldi	r24, 0x00	; 0
    164e:	90 e0       	ldi	r25, 0x00	; 0
    1650:	02 c0       	rjmp	.+4      	; 0x1656 <json_getProperty+0x40>
    1652:	8c 2f       	mov	r24, r28
    1654:	9d 2f       	mov	r25, r29
    1656:	df 91       	pop	r29
    1658:	cf 91       	pop	r28
    165a:	1f 91       	pop	r17
    165c:	0f 91       	pop	r16
    165e:	08 95       	ret

00001660 <json_create>:
static char* objValue( char* ptr, json_t* obj, jsonPool_t* pool );
static char* setToNull( char* ch );
static bool isEndOfPrimitive( char ch );

/* Parse a string to get a json. */
json_t const* json_create( char* str, json_t mem[], unsigned int qty ) {
    1660:	2f 92       	push	r2
    1662:	3f 92       	push	r3
    1664:	4f 92       	push	r4
    1666:	5f 92       	push	r5
    1668:	6f 92       	push	r6
    166a:	7f 92       	push	r7
    166c:	8f 92       	push	r8
    166e:	9f 92       	push	r9
    1670:	af 92       	push	r10
    1672:	bf 92       	push	r11
    1674:	cf 92       	push	r12
    1676:	df 92       	push	r13
    1678:	ef 92       	push	r14
    167a:	ff 92       	push	r15
    167c:	0f 93       	push	r16
    167e:	1f 93       	push	r17
    1680:	cf 93       	push	r28
    1682:	df 93       	push	r29
    1684:	00 d0       	rcall	.+0      	; 0x1686 <json_create+0x26>
    1686:	1f 92       	push	r1
    1688:	cd b7       	in	r28, 0x3d	; 61
    168a:	de b7       	in	r29, 0x3e	; 62
    168c:	5b 01       	movw	r10, r22
    168e:	3a 01       	movw	r6, r20

/** Increases a pointer while it points to a white space character.
  * @param str The initial pointer value.
  * @return The final pointer value or null pointer if the null character was found. */
static char* goBlank( char* str ) {
    return goWhile( str, blank );
    1690:	60 e3       	ldi	r22, 0x30	; 48
    1692:	71 e0       	ldi	r23, 0x01	; 1
    1694:	0e 94 8b 0a 	call	0x1516	; 0x1516 <_ZL7goWhilePcPKc>
static bool isEndOfPrimitive( char ch );

/* Parse a string to get a json. */
json_t const* json_create( char* str, json_t mem[], unsigned int qty ) {
    char* ptr = goBlank( str );
    if ( !ptr || *ptr != '{' ) return 0;
    1698:	00 97       	sbiw	r24, 0x00	; 0
    169a:	09 f4       	brne	.+2      	; 0x169e <json_create+0x3e>
    169c:	bb c1       	rjmp	.+886    	; 0x1a14 <json_create+0x3b4>
    169e:	dc 01       	movw	r26, r24
    16a0:	2c 91       	ld	r18, X
    16a2:	2b 37       	cpi	r18, 0x7B	; 123
    16a4:	09 f0       	breq	.+2      	; 0x16a8 <json_create+0x48>
    16a6:	b9 c1       	rjmp	.+882    	; 0x1a1a <json_create+0x3ba>
    jsonPool_t pool = { .mem = mem, .qty = qty };
    json_t* obj = poolInit( &pool );
    obj->name    = 0;
    16a8:	f5 01       	movw	r30, r10
    16aa:	13 82       	std	Z+3, r1	; 0x03
    16ac:	12 82       	std	Z+2, r1	; 0x02
    obj->sibling = 0;
    16ae:	11 82       	std	Z+1, r1	; 0x01
    16b0:	10 82       	st	Z, r1
    obj->u.child = 0;
    16b2:	15 82       	std	Z+5, r1	; 0x05
    16b4:	14 82       	std	Z+4, r1	; 0x04
  * @param str Pointer to first character.
  * @param pool The handler of a json pool for creating json instances.
  * @retval Pointer to first character after the value. If success.
  * @retval Null pointer if any error occur. */
static char* objValue( char* ptr, json_t* obj, jsonPool_t* pool ) {
    obj->type    = JSON_OBJ;
    16b6:	16 82       	std	Z+6, r1	; 0x06
    obj->u.child = 0;
    obj->sibling = 0;
    ptr++;
    16b8:	8c 01       	movw	r16, r24
    16ba:	0f 5f       	subi	r16, 0xFF	; 255
    16bc:	1f 4f       	sbci	r17, 0xFF	; 255
    16be:	75 01       	movw	r14, r10

/** Initialize a json pool.
  * @param pool The handler of the pool.
  * @return a instance of a json. */
static json_t* poolInit( jsonPool_t* pool ) {
    pool->nextFree = 1;
    16c0:	cc 24       	eor	r12, r12
    16c2:	c3 94       	inc	r12
    16c4:	d1 2c       	mov	r13, r1
    if ( *ptr != '0' ) {
        ptr = goNum( ptr );
        if ( !ptr ) return 0;
    }
    else if ( isNum( *++ptr ) ) return 0;
    property->type = JSON_INTEGER;
    16c6:	68 94       	set
    16c8:	22 24       	eor	r2, r2
    16ca:	22 f8       	bld	r2, 2
  * @retval Null pointer if any error occur. */
static char* textValue( char* ptr, json_t* property ) {
    ++property->u.value;
    ptr = parseString( ++ptr );
    if ( !ptr ) return 0;
    property->type = JSON_TEXT;
    16cc:	68 94       	set
    16ce:	44 24       	eor	r4, r4
    16d0:	41 f8       	bld	r4, 1
                property->sibling = obj;
                obj = property;
                ++ptr;
                break;
            case '[':
                property->type    = JSON_ARRAY;
    16d2:	33 24       	eor	r3, r3
    16d4:	33 94       	inc	r3
        if ( !ptr ) return 0;
        if ( *ptr == ',' ) {
            ++ptr;
            continue;
        }
        char const endchar = ( obj->type == JSON_OBJ )? '}': ']';
    16d6:	0f 2e       	mov	r0, r31
    16d8:	fd e7       	ldi	r31, 0x7D	; 125
    16da:	5f 2e       	mov	r5, r31
    16dc:	f0 2d       	mov	r31, r0

/** Increases a pointer while it points to a white space character.
  * @param str The initial pointer value.
  * @return The final pointer value or null pointer if the null character was found. */
static char* goBlank( char* str ) {
    return goWhile( str, blank );
    16de:	60 e3       	ldi	r22, 0x30	; 48
    16e0:	71 e0       	ldi	r23, 0x01	; 1
    16e2:	c8 01       	movw	r24, r16
    16e4:	0e 94 8b 0a 	call	0x1516	; 0x1516 <_ZL7goWhilePcPKc>
    16e8:	9b 83       	std	Y+3, r25	; 0x03
    16ea:	8a 83       	std	Y+2, r24	; 0x02
    obj->u.child = 0;
    obj->sibling = 0;
    ptr++;
    for(;;) {
        ptr = goBlank( ptr );
        if ( !ptr ) return 0;
    16ec:	00 97       	sbiw	r24, 0x00	; 0
    16ee:	09 f4       	brne	.+2      	; 0x16f2 <json_create+0x92>
    16f0:	9a c1       	rjmp	.+820    	; 0x1a26 <json_create+0x3c6>
        if ( *ptr == ',' ) {
    16f2:	dc 01       	movw	r26, r24
    16f4:	8c 91       	ld	r24, X
    16f6:	8c 32       	cpi	r24, 0x2C	; 44
    16f8:	21 f4       	brne	.+8      	; 0x1702 <json_create+0xa2>
            ++ptr;
    16fa:	8d 01       	movw	r16, r26
    16fc:	0f 5f       	subi	r16, 0xFF	; 255
    16fe:	1f 4f       	sbci	r17, 0xFF	; 255
    1700:	ee cf       	rjmp	.-36     	; 0x16de <json_create+0x7e>
            continue;
        }
        char const endchar = ( obj->type == JSON_OBJ )? '}': ']';
    1702:	f7 01       	movw	r30, r14
    1704:	96 81       	ldd	r25, Z+6	; 0x06
    1706:	99 23       	and	r25, r25
    1708:	11 f0       	breq	.+4      	; 0x170e <json_create+0xae>
    170a:	2d e5       	ldi	r18, 0x5D	; 93
    170c:	01 c0       	rjmp	.+2      	; 0x1710 <json_create+0xb0>
    170e:	25 2d       	mov	r18, r5
        if ( *ptr == endchar ) {
    1710:	82 13       	cpse	r24, r18
    1712:	16 c0       	rjmp	.+44     	; 0x1740 <json_create+0xe0>
            *ptr = '\0';
    1714:	aa 81       	ldd	r26, Y+2	; 0x02
    1716:	bb 81       	ldd	r27, Y+3	; 0x03
    1718:	1c 92       	st	X, r1
            json_t* parentObj = obj->sibling;
    171a:	f7 01       	movw	r30, r14
    171c:	80 81       	ld	r24, Z
    171e:	91 81       	ldd	r25, Z+1	; 0x01
            if ( !parentObj ) return ++ptr;
    1720:	00 97       	sbiw	r24, 0x00	; 0
    1722:	31 f4       	brne	.+12     	; 0x1730 <json_create+0xd0>
    json_t* obj = poolInit( &pool );
    obj->name    = 0;
    obj->sibling = 0;
    obj->u.child = 0;
    ptr = objValue( ptr, obj, &pool );
    if ( !ptr ) return 0;
    1724:	11 96       	adiw	r26, 0x01	; 1
    1726:	09 f4       	brne	.+2      	; 0x172a <json_create+0xca>
    1728:	7b c1       	rjmp	.+758    	; 0x1a20 <json_create+0x3c0>
    return obj;
    172a:	8a 2d       	mov	r24, r10
    172c:	9b 2d       	mov	r25, r11
    172e:	80 c1       	rjmp	.+768    	; 0x1a30 <json_create+0x3d0>
        char const endchar = ( obj->type == JSON_OBJ )? '}': ']';
        if ( *ptr == endchar ) {
            *ptr = '\0';
            json_t* parentObj = obj->sibling;
            if ( !parentObj ) return ++ptr;
            obj->sibling = 0;
    1730:	11 82       	std	Z+1, r1	; 0x01
    1732:	10 82       	st	Z, r1
            obj = parentObj;
            ++ptr;
    1734:	0a 81       	ldd	r16, Y+2	; 0x02
    1736:	1b 81       	ldd	r17, Y+3	; 0x03
    1738:	0f 5f       	subi	r16, 0xFF	; 255
    173a:	1f 4f       	sbci	r17, 0xFF	; 255
        if ( *ptr == endchar ) {
            *ptr = '\0';
            json_t* parentObj = obj->sibling;
            if ( !parentObj ) return ++ptr;
            obj->sibling = 0;
            obj = parentObj;
    173c:	7c 01       	movw	r14, r24
    173e:	cf cf       	rjmp	.-98     	; 0x16de <json_create+0x7e>
/** Create an instance of a json from a pool.
  * @param pool The handler of the pool.
  * @retval The handler of the new instance if success.
  * @retval Null pointer if the pool was empty. */
static json_t* poolNew( jsonPool_t* pool ) {
    if ( pool->nextFree >= pool->qty ) return 0;
    1740:	c6 14       	cp	r12, r6
    1742:	d7 04       	cpc	r13, r7
    1744:	08 f0       	brcs	.+2      	; 0x1748 <json_create+0xe8>
    1746:	72 c1       	rjmp	.+740    	; 0x1a2c <json_create+0x3cc>
    return &pool->mem[pool->nextFree++];
    1748:	46 01       	movw	r8, r12
    174a:	bf ef       	ldi	r27, 0xFF	; 255
    174c:	8b 1a       	sub	r8, r27
    174e:	9b 0a       	sbc	r9, r27
    1750:	96 01       	movw	r18, r12
    1752:	22 0f       	add	r18, r18
    1754:	33 1f       	adc	r19, r19
    1756:	22 0f       	add	r18, r18
    1758:	33 1f       	adc	r19, r19
    175a:	22 0f       	add	r18, r18
    175c:	33 1f       	adc	r19, r19
    175e:	f9 01       	movw	r30, r18
    1760:	ec 19       	sub	r30, r12
    1762:	fd 09       	sbc	r31, r13
    1764:	6f 01       	movw	r12, r30
    1766:	ca 0c       	add	r12, r10
    1768:	db 1c       	adc	r13, r11
            obj = parentObj;
            ++ptr;
            continue;
        }
        json_t* property = poolNew( pool );
        if ( !property ) return 0;
    176a:	c1 14       	cp	r12, r1
    176c:	d1 04       	cpc	r13, r1
    176e:	09 f4       	brne	.+2      	; 0x1772 <json_create+0x112>
    1770:	5a c1       	rjmp	.+692    	; 0x1a26 <json_create+0x3c6>
        if( obj->type != JSON_ARRAY ) {
    1772:	91 30       	cpi	r25, 0x01	; 1
    1774:	31 f1       	breq	.+76     	; 0x17c2 <json_create+0x162>
            if ( *ptr != '\"' ) return 0;
    1776:	82 32       	cpi	r24, 0x22	; 34
    1778:	09 f0       	breq	.+2      	; 0x177c <json_create+0x11c>
    177a:	55 c1       	rjmp	.+682    	; 0x1a26 <json_create+0x3c6>
  * @param str Pointer to first character.
  * @param property The property to assign the name.
  * @retval Pointer to first of property value. If success.
  * @retval Null pointer if any error occur. */
static char* propertyName( char* ptr, json_t* property ) {
    property->name = ++ptr;
    177c:	8a 81       	ldd	r24, Y+2	; 0x02
    177e:	9b 81       	ldd	r25, Y+3	; 0x03
    1780:	01 96       	adiw	r24, 0x01	; 1
    1782:	d6 01       	movw	r26, r12
    1784:	13 96       	adiw	r26, 0x03	; 3
    1786:	9c 93       	st	X, r25
    1788:	8e 93       	st	-X, r24
    178a:	12 97       	sbiw	r26, 0x02	; 2
    ptr = parseString( ptr );
    178c:	0e 94 0f 0a 	call	0x141e	; 0x141e <_ZL11parseStringPc>
    if ( !ptr ) return 0;
    1790:	00 97       	sbiw	r24, 0x00	; 0
    1792:	09 f4       	brne	.+2      	; 0x1796 <json_create+0x136>
    1794:	4b c1       	rjmp	.+662    	; 0x1a2c <json_create+0x3cc>

/** Increases a pointer while it points to a white space character.
  * @param str The initial pointer value.
  * @return The final pointer value or null pointer if the null character was found. */
static char* goBlank( char* str ) {
    return goWhile( str, blank );
    1796:	60 e3       	ldi	r22, 0x30	; 48
    1798:	71 e0       	ldi	r23, 0x01	; 1
    179a:	0e 94 8b 0a 	call	0x1516	; 0x1516 <_ZL7goWhilePcPKc>
static char* propertyName( char* ptr, json_t* property ) {
    property->name = ++ptr;
    ptr = parseString( ptr );
    if ( !ptr ) return 0;
    ptr = goBlank( ptr );
    if ( !ptr ) return 0;
    179e:	00 97       	sbiw	r24, 0x00	; 0
    17a0:	09 f4       	brne	.+2      	; 0x17a4 <json_create+0x144>
    17a2:	44 c1       	rjmp	.+648    	; 0x1a2c <json_create+0x3cc>
    if ( *ptr++ != ':' ) return 0;
    17a4:	fc 01       	movw	r30, r24
    17a6:	20 81       	ld	r18, Z
    17a8:	2a 33       	cpi	r18, 0x3A	; 58
    17aa:	09 f0       	breq	.+2      	; 0x17ae <json_create+0x14e>
    17ac:	3f c1       	rjmp	.+638    	; 0x1a2c <json_create+0x3cc>

/** Increases a pointer while it points to a white space character.
  * @param str The initial pointer value.
  * @return The final pointer value or null pointer if the null character was found. */
static char* goBlank( char* str ) {
    return goWhile( str, blank );
    17ae:	60 e3       	ldi	r22, 0x30	; 48
    17b0:	71 e0       	ldi	r23, 0x01	; 1
    17b2:	01 96       	adiw	r24, 0x01	; 1
    17b4:	0e 94 8b 0a 	call	0x1516	; 0x1516 <_ZL7goWhilePcPKc>
    17b8:	9b 83       	std	Y+3, r25	; 0x03
    17ba:	8a 83       	std	Y+2, r24	; 0x02
        json_t* property = poolNew( pool );
        if ( !property ) return 0;
        if( obj->type != JSON_ARRAY ) {
            if ( *ptr != '\"' ) return 0;
            ptr = propertyName( ptr, property );
            if ( !ptr ) return 0;
    17bc:	89 2b       	or	r24, r25
    17be:	31 f4       	brne	.+12     	; 0x17cc <json_create+0x16c>
    17c0:	32 c1       	rjmp	.+612    	; 0x1a26 <json_create+0x3c6>
        }
        else property->name = 0;
    17c2:	d6 01       	movw	r26, r12
    17c4:	13 96       	adiw	r26, 0x03	; 3
    17c6:	1c 92       	st	X, r1
    17c8:	1e 92       	st	-X, r1
    17ca:	12 97       	sbiw	r26, 0x02	; 2

/** Add a property to a JSON object or array.
  * @param obj The handler of the JSON object or array.
  * @param property The handler of the property to be added. */
static void add( json_t* obj, json_t* property ) {
    property->sibling = 0;
    17cc:	f6 01       	movw	r30, r12
    17ce:	11 82       	std	Z+1, r1	; 0x01
    17d0:	10 82       	st	Z, r1
    if ( !obj->u.child ) obj->u.child = property;
    17d2:	d7 01       	movw	r26, r14
    17d4:	14 96       	adiw	r26, 0x04	; 4
    17d6:	ed 91       	ld	r30, X+
    17d8:	fc 91       	ld	r31, X
    17da:	15 97       	sbiw	r26, 0x05	; 5
    17dc:	30 97       	sbiw	r30, 0x00	; 0
    17de:	39 f4       	brne	.+14     	; 0x17ee <json_create+0x18e>
    17e0:	15 96       	adiw	r26, 0x05	; 5
    17e2:	dc 92       	st	X, r13
    17e4:	ce 92       	st	-X, r12
    17e6:	14 97       	sbiw	r26, 0x04	; 4
    17e8:	08 c0       	rjmp	.+16     	; 0x17fa <json_create+0x19a>
    else {
        json_t* iter;
        for( iter = obj->u.child; iter->sibling; iter = iter->sibling );
    17ea:	fc 01       	movw	r30, r24
    17ec:	00 c0       	rjmp	.+0      	; 0x17ee <json_create+0x18e>
    17ee:	80 81       	ld	r24, Z
    17f0:	91 81       	ldd	r25, Z+1	; 0x01
    17f2:	00 97       	sbiw	r24, 0x00	; 0
    17f4:	d1 f7       	brne	.-12     	; 0x17ea <json_create+0x18a>
        iter->sibling = property;
    17f6:	d1 82       	std	Z+1, r13	; 0x01
    17f8:	c0 82       	st	Z, r12
            ptr = propertyName( ptr, property );
            if ( !ptr ) return 0;
        }
        else property->name = 0;
        add( obj, property );
        property->u.value = ptr;
    17fa:	ea 81       	ldd	r30, Y+2	; 0x02
    17fc:	fb 81       	ldd	r31, Y+3	; 0x03
    17fe:	d6 01       	movw	r26, r12
    1800:	15 96       	adiw	r26, 0x05	; 5
    1802:	fc 93       	st	X, r31
    1804:	ee 93       	st	-X, r30
    1806:	14 97       	sbiw	r26, 0x04	; 4
        switch( *ptr ) {
    1808:	80 81       	ld	r24, Z
    180a:	86 36       	cpi	r24, 0x66	; 102
    180c:	09 f4       	brne	.+2      	; 0x1810 <json_create+0x1b0>
    180e:	46 c0       	rjmp	.+140    	; 0x189c <json_create+0x23c>
    1810:	28 f4       	brcc	.+10     	; 0x181c <json_create+0x1bc>
    1812:	82 32       	cpi	r24, 0x22	; 34
    1814:	39 f1       	breq	.+78     	; 0x1864 <json_create+0x204>
    1816:	8b 35       	cpi	r24, 0x5B	; 91
    1818:	c9 f0       	breq	.+50     	; 0x184c <json_create+0x1ec>
    181a:	54 c0       	rjmp	.+168    	; 0x18c4 <json_create+0x264>
    181c:	84 37       	cpi	r24, 0x74	; 116
    181e:	a1 f1       	breq	.+104    	; 0x1888 <json_create+0x228>
    1820:	8b 37       	cpi	r24, 0x7B	; 123
    1822:	21 f0       	breq	.+8      	; 0x182c <json_create+0x1cc>
    1824:	8e 36       	cpi	r24, 0x6E	; 110
    1826:	09 f0       	breq	.+2      	; 0x182a <json_create+0x1ca>
    1828:	4d c0       	rjmp	.+154    	; 0x18c4 <json_create+0x264>
    182a:	42 c0       	rjmp	.+132    	; 0x18b0 <json_create+0x250>
            case '{':
                property->type    = JSON_OBJ;
    182c:	d6 01       	movw	r26, r12
    182e:	16 96       	adiw	r26, 0x06	; 6
    1830:	1c 92       	st	X, r1
    1832:	16 97       	sbiw	r26, 0x06	; 6
                property->u.child = 0;
    1834:	15 96       	adiw	r26, 0x05	; 5
    1836:	1c 92       	st	X, r1
    1838:	1e 92       	st	-X, r1
    183a:	14 97       	sbiw	r26, 0x04	; 4
                property->sibling = obj;
    183c:	ed 92       	st	X+, r14
    183e:	fc 92       	st	X, r15
                obj = property;
                ++ptr;
    1840:	0a 81       	ldd	r16, Y+2	; 0x02
    1842:	1b 81       	ldd	r17, Y+3	; 0x03
    1844:	0f 5f       	subi	r16, 0xFF	; 255
    1846:	1f 4f       	sbci	r17, 0xFF	; 255
  * @param pool The handler of the pool.
  * @retval The handler of the new instance if success.
  * @retval Null pointer if the pool was empty. */
static json_t* poolNew( jsonPool_t* pool ) {
    if ( pool->nextFree >= pool->qty ) return 0;
    return &pool->mem[pool->nextFree++];
    1848:	76 01       	movw	r14, r12
    184a:	df c0       	rjmp	.+446    	; 0x1a0a <json_create+0x3aa>
                property->sibling = obj;
                obj = property;
                ++ptr;
                break;
            case '[':
                property->type    = JSON_ARRAY;
    184c:	f6 01       	movw	r30, r12
    184e:	36 82       	std	Z+6, r3	; 0x06
                property->u.child = 0;
    1850:	15 82       	std	Z+5, r1	; 0x05
    1852:	14 82       	std	Z+4, r1	; 0x04
                property->sibling = obj;
    1854:	f1 82       	std	Z+1, r15	; 0x01
    1856:	e0 82       	st	Z, r14
                obj = property;
                ++ptr;
    1858:	0a 81       	ldd	r16, Y+2	; 0x02
    185a:	1b 81       	ldd	r17, Y+3	; 0x03
    185c:	0f 5f       	subi	r16, 0xFF	; 255
    185e:	1f 4f       	sbci	r17, 0xFF	; 255
  * @param pool The handler of the pool.
  * @retval The handler of the new instance if success.
  * @retval Null pointer if the pool was empty. */
static json_t* poolNew( jsonPool_t* pool ) {
    if ( pool->nextFree >= pool->qty ) return 0;
    return &pool->mem[pool->nextFree++];
    1860:	76 01       	movw	r14, r12
    1862:	d3 c0       	rjmp	.+422    	; 0x1a0a <json_create+0x3aa>
  * @param str Pointer to first character ('\"').
  * @param property The property to assign the name.
  * @retval Pointer to first non white space after the string. If success.
  * @retval Null pointer if any error occur. */
static char* textValue( char* ptr, json_t* property ) {
    ++property->u.value;
    1864:	8a 81       	ldd	r24, Y+2	; 0x02
    1866:	9b 81       	ldd	r25, Y+3	; 0x03
    1868:	01 96       	adiw	r24, 0x01	; 1
    186a:	d6 01       	movw	r26, r12
    186c:	15 96       	adiw	r26, 0x05	; 5
    186e:	9c 93       	st	X, r25
    1870:	8e 93       	st	-X, r24
    1872:	14 97       	sbiw	r26, 0x04	; 4
    ptr = parseString( ++ptr );
    1874:	0e 94 0f 0a 	call	0x141e	; 0x141e <_ZL11parseStringPc>
    1878:	8c 01       	movw	r16, r24
    if ( !ptr ) return 0;
    187a:	89 2b       	or	r24, r25
    187c:	09 f4       	brne	.+2      	; 0x1880 <json_create+0x220>
    187e:	d6 c0       	rjmp	.+428    	; 0x1a2c <json_create+0x3cc>
    property->type = JSON_TEXT;
    1880:	f6 01       	movw	r30, r12
    1882:	46 82       	std	Z+6, r4	; 0x06
  * @param pool The handler of the pool.
  * @retval The handler of the new instance if success.
  * @retval Null pointer if the pool was empty. */
static json_t* poolNew( jsonPool_t* pool ) {
    if ( pool->nextFree >= pool->qty ) return 0;
    return &pool->mem[pool->nextFree++];
    1884:	64 01       	movw	r12, r8
    1886:	2b cf       	rjmp	.-426    	; 0x16de <json_create+0x7e>
  * @param str Pointer to first character.
  * @param property Property handler to set the value and the type, (true, false or null).
  * @retval Pointer to first non white space after the string. If success.
  * @retval Null pointer if any error occur. */
static char* trueValue( char* ptr, json_t* property ) {
    return primitiveValue( ptr, property, "true", JSON_BOOLEAN );
    1888:	23 e0       	ldi	r18, 0x03	; 3
    188a:	49 e3       	ldi	r20, 0x39	; 57
    188c:	51 e0       	ldi	r21, 0x01	; 1
    188e:	b6 01       	movw	r22, r12
    1890:	8a 81       	ldd	r24, Y+2	; 0x02
    1892:	9b 81       	ldd	r25, Y+3	; 0x03
    1894:	0e 94 d6 0a 	call	0x15ac	; 0x15ac <_ZL14primitiveValuePcP6json_sPKc10jsonType_t>
    1898:	8c 01       	movw	r16, r24
    189a:	b7 c0       	rjmp	.+366    	; 0x1a0a <json_create+0x3aa>
  * @param str Pointer to first character.
  * @param property Property handler to set the value and the type, (true, false or null).
  * @retval Pointer to first non white space after the string. If success.
  * @retval Null pointer if any error occur. */
static char* falseValue( char* ptr, json_t* property ) {
    return primitiveValue( ptr, property, "false", JSON_BOOLEAN );
    189c:	23 e0       	ldi	r18, 0x03	; 3
    189e:	4e e3       	ldi	r20, 0x3E	; 62
    18a0:	51 e0       	ldi	r21, 0x01	; 1
    18a2:	b6 01       	movw	r22, r12
    18a4:	8a 81       	ldd	r24, Y+2	; 0x02
    18a6:	9b 81       	ldd	r25, Y+3	; 0x03
    18a8:	0e 94 d6 0a 	call	0x15ac	; 0x15ac <_ZL14primitiveValuePcP6json_sPKc10jsonType_t>
    18ac:	8c 01       	movw	r16, r24
    18ae:	ad c0       	rjmp	.+346    	; 0x1a0a <json_create+0x3aa>
  * @param str Pointer to first character.
  * @param property Property handler to set the value and the type, (true, false or null).
  * @retval Pointer to first non white space after the string. If success.
  * @retval Null pointer if any error occur. */
static char* nullValue( char* ptr, json_t* property ) {
    return primitiveValue( ptr, property, "null", JSON_NULL );
    18b0:	26 e0       	ldi	r18, 0x06	; 6
    18b2:	44 e4       	ldi	r20, 0x44	; 68
    18b4:	51 e0       	ldi	r21, 0x01	; 1
    18b6:	b6 01       	movw	r22, r12
    18b8:	8a 81       	ldd	r24, Y+2	; 0x02
    18ba:	9b 81       	ldd	r25, Y+3	; 0x03
    18bc:	0e 94 d6 0a 	call	0x15ac	; 0x15ac <_ZL14primitiveValuePcP6json_sPKc10jsonType_t>
    18c0:	8c 01       	movw	r16, r24
    18c2:	a3 c0       	rjmp	.+326    	; 0x1a0a <json_create+0x3aa>
  * @param str Pointer to first character.
  * @param property Property handler to set the value and the type: JSON_REAL or JSON_INTEGER.
  * @retval Pointer to first non white space after the string. If success.
  * @retval Null pointer if any error occur. */
static char* numValue( char* ptr, json_t* property ) {
    if ( *ptr == '-' ) ++ptr;
    18c4:	8d 32       	cpi	r24, 0x2D	; 45
    18c6:	21 f4       	brne	.+8      	; 0x18d0 <json_create+0x270>
    18c8:	ea 81       	ldd	r30, Y+2	; 0x02
    18ca:	fb 81       	ldd	r31, Y+3	; 0x03
    18cc:	31 96       	adiw	r30, 0x01	; 1
    18ce:	02 c0       	rjmp	.+4      	; 0x18d4 <json_create+0x274>
    18d0:	ea 81       	ldd	r30, Y+2	; 0x02
    18d2:	fb 81       	ldd	r31, Y+3	; 0x03
    if ( !isNum( *ptr ) ) return 0;
    18d4:	80 81       	ld	r24, Z
    18d6:	90 ed       	ldi	r25, 0xD0	; 208
    18d8:	98 0f       	add	r25, r24
    18da:	9a 30       	cpi	r25, 0x0A	; 10
    18dc:	08 f0       	brcs	.+2      	; 0x18e0 <json_create+0x280>
    18de:	a6 c0       	rjmp	.+332    	; 0x1a2c <json_create+0x3cc>
    if ( *ptr != '0' ) {
    18e0:	80 33       	cpi	r24, 0x30	; 48
    18e2:	39 f0       	breq	.+14     	; 0x18f2 <json_create+0x292>
        ptr = goNum( ptr );
    18e4:	cf 01       	movw	r24, r30
    18e6:	0e 94 a9 0a 	call	0x1552	; 0x1552 <_ZL5goNumPc>
    18ea:	8c 01       	movw	r16, r24
        if ( !ptr ) return 0;
    18ec:	89 2b       	or	r24, r25
    18ee:	49 f4       	brne	.+18     	; 0x1902 <json_create+0x2a2>
    18f0:	9d c0       	rjmp	.+314    	; 0x1a2c <json_create+0x3cc>
    }
    else if ( isNum( *++ptr ) ) return 0;
    18f2:	8f 01       	movw	r16, r30
    18f4:	0f 5f       	subi	r16, 0xFF	; 255
    18f6:	1f 4f       	sbci	r17, 0xFF	; 255
    18f8:	81 81       	ldd	r24, Z+1	; 0x01
    18fa:	80 53       	subi	r24, 0x30	; 48
    18fc:	8a 30       	cpi	r24, 0x0A	; 10
    18fe:	08 f4       	brcc	.+2      	; 0x1902 <json_create+0x2a2>
    1900:	95 c0       	rjmp	.+298    	; 0x1a2c <json_create+0x3cc>
    property->type = JSON_INTEGER;
    1902:	d6 01       	movw	r26, r12
    1904:	16 96       	adiw	r26, 0x06	; 6
    1906:	2c 92       	st	X, r2
    if ( *ptr == '.' ) {
    1908:	f8 01       	movw	r30, r16
    190a:	80 81       	ld	r24, Z
    190c:	8e 32       	cpi	r24, 0x2E	; 46
    190e:	89 f4       	brne	.+34     	; 0x1932 <json_create+0x2d2>
/** Analyze the decimal part of a real number.
  * @param str Pointer to first character.
  * @retval Pointer to first non numerical after the string. If success.
  * @retval Null pointer if any error occur. */
static char* fraqValue( char* ptr ) {
    if ( !isNum( *ptr ) ) return 0;
    1910:	81 81       	ldd	r24, Z+1	; 0x01
    1912:	80 53       	subi	r24, 0x30	; 48
    1914:	8a 30       	cpi	r24, 0x0A	; 10
    1916:	08 f0       	brcs	.+2      	; 0x191a <json_create+0x2ba>
    1918:	86 c0       	rjmp	.+268    	; 0x1a26 <json_create+0x3c6>
    ptr = goNum( ++ptr );
    191a:	c8 01       	movw	r24, r16
    191c:	02 96       	adiw	r24, 0x02	; 2
    191e:	0e 94 a9 0a 	call	0x1552	; 0x1552 <_ZL5goNumPc>
    1922:	8c 01       	movw	r16, r24
    }
    else if ( isNum( *++ptr ) ) return 0;
    property->type = JSON_INTEGER;
    if ( *ptr == '.' ) {
        ptr = fraqValue( ++ptr );
        if ( !ptr ) return 0;
    1924:	89 2b       	or	r24, r25
    1926:	09 f4       	brne	.+2      	; 0x192a <json_create+0x2ca>
    1928:	81 c0       	rjmp	.+258    	; 0x1a2c <json_create+0x3cc>
        property->type = JSON_REAL;
    192a:	e5 e0       	ldi	r30, 0x05	; 5
    192c:	d6 01       	movw	r26, r12
    192e:	16 96       	adiw	r26, 0x06	; 6
    1930:	ec 93       	st	X, r30
    }
    if ( *ptr == 'e' || *ptr == 'E' ) {
    1932:	d8 01       	movw	r26, r16
    1934:	8c 91       	ld	r24, X
    1936:	8f 7d       	andi	r24, 0xDF	; 223
    1938:	85 34       	cpi	r24, 0x45	; 69
    193a:	11 f5       	brne	.+68     	; 0x1980 <json_create+0x320>
/** Analyze the exponential part of a real number.
  * @param str Pointer to first character.
  * @retval Pointer to first non numerical after the string. If success.
  * @retval Null pointer if any error occur. */
static char* expValue( char* ptr ) {
    if ( *ptr == '-' || *ptr == '+' ) ++ptr;
    193c:	11 96       	adiw	r26, 0x01	; 1
    193e:	8c 91       	ld	r24, X
    1940:	8d 32       	cpi	r24, 0x2D	; 45
    1942:	29 f0       	breq	.+10     	; 0x194e <json_create+0x2ee>
    1944:	8b 32       	cpi	r24, 0x2B	; 43
    1946:	19 f0       	breq	.+6      	; 0x194e <json_create+0x2ee>
        ptr = fraqValue( ++ptr );
        if ( !ptr ) return 0;
        property->type = JSON_REAL;
    }
    if ( *ptr == 'e' || *ptr == 'E' ) {
        ptr = expValue( ++ptr );
    1948:	f8 01       	movw	r30, r16
    194a:	31 96       	adiw	r30, 0x01	; 1
    194c:	02 c0       	rjmp	.+4      	; 0x1952 <json_create+0x2f2>
/** Analyze the exponential part of a real number.
  * @param str Pointer to first character.
  * @retval Pointer to first non numerical after the string. If success.
  * @retval Null pointer if any error occur. */
static char* expValue( char* ptr ) {
    if ( *ptr == '-' || *ptr == '+' ) ++ptr;
    194e:	f8 01       	movw	r30, r16
    1950:	32 96       	adiw	r30, 0x02	; 2
    if ( !isNum( *ptr ) ) return 0;
    1952:	90 81       	ld	r25, Z
    1954:	90 53       	subi	r25, 0x30	; 48
    1956:	9a 30       	cpi	r25, 0x0A	; 10
    1958:	08 f0       	brcs	.+2      	; 0x195c <json_create+0x2fc>
    195a:	65 c0       	rjmp	.+202    	; 0x1a26 <json_create+0x3c6>
    ptr = goNum( ++ptr );
    195c:	cf 01       	movw	r24, r30
    195e:	01 96       	adiw	r24, 0x01	; 1
    1960:	0e 94 a9 0a 	call	0x1552	; 0x1552 <_ZL5goNumPc>
    1964:	8c 01       	movw	r16, r24
        if ( !ptr ) return 0;
        property->type = JSON_REAL;
    }
    if ( *ptr == 'e' || *ptr == 'E' ) {
        ptr = expValue( ++ptr );
        if ( !ptr ) return 0;
    1966:	00 97       	sbiw	r24, 0x00	; 0
    1968:	09 f4       	brne	.+2      	; 0x196c <json_create+0x30c>
    196a:	60 c0       	rjmp	.+192    	; 0x1a2c <json_create+0x3cc>
        property->type = JSON_REAL;
    196c:	25 e0       	ldi	r18, 0x05	; 5
    196e:	f6 01       	movw	r30, r12
    1970:	26 83       	std	Z+6, r18	; 0x06
    }
    if ( !isEndOfPrimitive( *ptr ) ) return 0;
    1972:	dc 01       	movw	r26, r24
    1974:	8c 91       	ld	r24, X
    1976:	0e 94 c3 0a 	call	0x1586	; 0x1586 <_ZL16isEndOfPrimitivec>
    197a:	81 11       	cpse	r24, r1
    197c:	3a c0       	rjmp	.+116    	; 0x19f2 <json_create+0x392>
    197e:	56 c0       	rjmp	.+172    	; 0x1a2c <json_create+0x3cc>
    1980:	f8 01       	movw	r30, r16
    1982:	f0 81       	ld	r31, Z
    1984:	f9 83       	std	Y+1, r31	; 0x01
    1986:	8f 2f       	mov	r24, r31
    1988:	0e 94 c3 0a 	call	0x1586	; 0x1586 <_ZL16isEndOfPrimitivec>
    198c:	88 23       	and	r24, r24
    198e:	09 f4       	brne	.+2      	; 0x1992 <json_create+0x332>
    1990:	4d c0       	rjmp	.+154    	; 0x1a2c <json_create+0x3cc>
    if ( JSON_INTEGER == property->type ) {
    1992:	d6 01       	movw	r26, r12
    1994:	16 96       	adiw	r26, 0x06	; 6
    1996:	8c 91       	ld	r24, X
    1998:	84 30       	cpi	r24, 0x04	; 4
    199a:	59 f5       	brne	.+86     	; 0x19f2 <json_create+0x392>
        char const* value = property->u.value;
        bool const negative = *value == '-';
    199c:	ea 81       	ldd	r30, Y+2	; 0x02
    199e:	fb 81       	ldd	r31, Y+3	; 0x03
    19a0:	40 81       	ld	r20, Z
        static char const min[] = "-9223372036854775808";
        static char const max[] = "9223372036854775807";
        unsigned int const maxdigits = ( negative? sizeof min: sizeof max ) - 1;
    19a2:	4d 32       	cpi	r20, 0x2D	; 45
    19a4:	19 f0       	breq	.+6      	; 0x19ac <json_create+0x34c>
    19a6:	83 e1       	ldi	r24, 0x13	; 19
    19a8:	90 e0       	ldi	r25, 0x00	; 0
    19aa:	02 c0       	rjmp	.+4      	; 0x19b0 <json_create+0x350>
    19ac:	84 e1       	ldi	r24, 0x14	; 20
    19ae:	90 e0       	ldi	r25, 0x00	; 0
        unsigned int const len = ptr - value;
    19b0:	98 01       	movw	r18, r16
    19b2:	6a 81       	ldd	r22, Y+2	; 0x02
    19b4:	7b 81       	ldd	r23, Y+3	; 0x03
    19b6:	26 1b       	sub	r18, r22
    19b8:	37 0b       	sbc	r19, r23
        if ( len > maxdigits ) return 0;
    19ba:	82 17       	cp	r24, r18
    19bc:	93 07       	cpc	r25, r19
    19be:	b0 f1       	brcs	.+108    	; 0x1a2c <json_create+0x3cc>
        if ( len == maxdigits ) {
    19c0:	28 17       	cp	r18, r24
    19c2:	39 07       	cpc	r19, r25
    19c4:	b1 f4       	brne	.+44     	; 0x19f2 <json_create+0x392>
            char const tmp = *ptr;
            *ptr = '\0';
    19c6:	d8 01       	movw	r26, r16
    19c8:	1c 92       	st	X, r1
            char const* const threshold = negative ? min: max;
    19ca:	4d 32       	cpi	r20, 0x2D	; 45
    19cc:	29 f0       	breq	.+10     	; 0x19d8 <json_create+0x378>
    19ce:	e9 e4       	ldi	r30, 0x49	; 73
    19d0:	f1 e0       	ldi	r31, 0x01	; 1
    19d2:	8e 2f       	mov	r24, r30
    19d4:	9f 2f       	mov	r25, r31
    19d6:	04 c0       	rjmp	.+8      	; 0x19e0 <json_create+0x380>
    19d8:	2d e5       	ldi	r18, 0x5D	; 93
    19da:	31 e0       	ldi	r19, 0x01	; 1
    19dc:	82 2f       	mov	r24, r18
    19de:	93 2f       	mov	r25, r19
            if ( 0 > strcmp( threshold, value ) ) return 0;
    19e0:	6a 81       	ldd	r22, Y+2	; 0x02
    19e2:	7b 81       	ldd	r23, Y+3	; 0x03
    19e4:	0e 94 57 19 	call	0x32ae	; 0x32ae <strcmp>
    19e8:	99 23       	and	r25, r25
    19ea:	04 f1       	brlt	.+64     	; 0x1a2c <json_create+0x3cc>
            *ptr = tmp;
    19ec:	e9 81       	ldd	r30, Y+1	; 0x01
    19ee:	d8 01       	movw	r26, r16
    19f0:	ec 93       	st	X, r30

/** Set a char to '\0' and increase its pointer if the char is different to '}' or ']'.
  * @param ch Pointer to character.
  * @return  Final value pointer. */
static char* setToNull( char* ch ) {
    if ( !isOneOfThem( *ch, endofblock ) ) *ch++ = '\0';
    19f2:	66 e3       	ldi	r22, 0x36	; 54
    19f4:	71 e0       	ldi	r23, 0x01	; 1
    19f6:	d8 01       	movw	r26, r16
    19f8:	8c 91       	ld	r24, X
    19fa:	0e 94 81 0a 	call	0x1502	; 0x1502 <_ZL11isOneOfThemcPKc>
    19fe:	81 11       	cpse	r24, r1
    1a00:	04 c0       	rjmp	.+8      	; 0x1a0a <json_create+0x3aa>
    1a02:	f8 01       	movw	r30, r16
    1a04:	10 82       	st	Z, r1
    1a06:	0f 5f       	subi	r16, 0xFF	; 255
    1a08:	1f 4f       	sbci	r17, 0xFF	; 255
            case 't':  ptr = trueValue( ptr, property );  break;
            case 'f':  ptr = falseValue( ptr, property ); break;
            case 'n':  ptr = nullValue( ptr, property );  break;
            default:   ptr = numValue( ptr, property );   break;
        }
        if ( !ptr ) return 0;
    1a0a:	01 15       	cp	r16, r1
    1a0c:	11 05       	cpc	r17, r1
    1a0e:	59 f0       	breq	.+22     	; 0x1a26 <json_create+0x3c6>
  * @param pool The handler of the pool.
  * @retval The handler of the new instance if success.
  * @retval Null pointer if the pool was empty. */
static json_t* poolNew( jsonPool_t* pool ) {
    if ( pool->nextFree >= pool->qty ) return 0;
    return &pool->mem[pool->nextFree++];
    1a10:	64 01       	movw	r12, r8
    1a12:	65 ce       	rjmp	.-822    	; 0x16de <json_create+0x7e>
static bool isEndOfPrimitive( char ch );

/* Parse a string to get a json. */
json_t const* json_create( char* str, json_t mem[], unsigned int qty ) {
    char* ptr = goBlank( str );
    if ( !ptr || *ptr != '{' ) return 0;
    1a14:	80 e0       	ldi	r24, 0x00	; 0
    1a16:	90 e0       	ldi	r25, 0x00	; 0
    1a18:	0b c0       	rjmp	.+22     	; 0x1a30 <json_create+0x3d0>
    1a1a:	80 e0       	ldi	r24, 0x00	; 0
    1a1c:	90 e0       	ldi	r25, 0x00	; 0
    1a1e:	08 c0       	rjmp	.+16     	; 0x1a30 <json_create+0x3d0>
    json_t* obj = poolInit( &pool );
    obj->name    = 0;
    obj->sibling = 0;
    obj->u.child = 0;
    ptr = objValue( ptr, obj, &pool );
    if ( !ptr ) return 0;
    1a20:	80 e0       	ldi	r24, 0x00	; 0
    1a22:	90 e0       	ldi	r25, 0x00	; 0
    1a24:	05 c0       	rjmp	.+10     	; 0x1a30 <json_create+0x3d0>
    1a26:	80 e0       	ldi	r24, 0x00	; 0
    1a28:	90 e0       	ldi	r25, 0x00	; 0
    1a2a:	02 c0       	rjmp	.+4      	; 0x1a30 <json_create+0x3d0>
    1a2c:	80 e0       	ldi	r24, 0x00	; 0
    1a2e:	90 e0       	ldi	r25, 0x00	; 0
    return obj;
}
    1a30:	0f 90       	pop	r0
    1a32:	0f 90       	pop	r0
    1a34:	0f 90       	pop	r0
    1a36:	df 91       	pop	r29
    1a38:	cf 91       	pop	r28
    1a3a:	1f 91       	pop	r17
    1a3c:	0f 91       	pop	r16
    1a3e:	ff 90       	pop	r15
    1a40:	ef 90       	pop	r14
    1a42:	df 90       	pop	r13
    1a44:	cf 90       	pop	r12
    1a46:	bf 90       	pop	r11
    1a48:	af 90       	pop	r10
    1a4a:	9f 90       	pop	r9
    1a4c:	8f 90       	pop	r8
    1a4e:	7f 90       	pop	r7
    1a50:	6f 90       	pop	r6
    1a52:	5f 90       	pop	r5
    1a54:	4f 90       	pop	r4
    1a56:	3f 90       	pop	r3
    1a58:	2f 90       	pop	r2
    1a5a:	08 95       	ret

00001a5c <_ZN4UART11GetMessagesEv>:
					bufferIndexes[nBuffer]=bufferIndex+1;
				}
			}
		}
	}
	Messages* UART::GetMessages(){
    1a5c:	3f 92       	push	r3
    1a5e:	4f 92       	push	r4
    1a60:	5f 92       	push	r5
    1a62:	6f 92       	push	r6
    1a64:	7f 92       	push	r7
    1a66:	8f 92       	push	r8
    1a68:	9f 92       	push	r9
    1a6a:	af 92       	push	r10
    1a6c:	bf 92       	push	r11
    1a6e:	cf 92       	push	r12
    1a70:	df 92       	push	r13
    1a72:	ef 92       	push	r14
    1a74:	ff 92       	push	r15
    1a76:	0f 93       	push	r16
    1a78:	1f 93       	push	r17
    1a7a:	cf 93       	push	r28
    1a7c:	df 93       	push	r29
    1a7e:	cd b7       	in	r28, 0x3d	; 61
    1a80:	de b7       	in	r29, 0x3e	; 62
    1a82:	2a 97       	sbiw	r28, 0x0a	; 10
    1a84:	0f b6       	in	r0, 0x3f	; 63
    1a86:	f8 94       	cli
    1a88:	de bf       	out	0x3e, r29	; 62
    1a8a:	0f be       	out	0x3f, r0	; 63
    1a8c:	cd bf       	out	0x3d, r28	; 61
    1a8e:	5c 01       	movw	r10, r24
    1a90:	e1 2c       	mov	r14, r1
    1a92:	f1 2c       	mov	r15, r1
		char tempMessagesIndex=0;
    1a94:	31 2c       	mov	r3, r1
		Message* tempMessages [UART_N_BUFFERS];
		for(char i=0; i<UART_N_BUFFERS; i++)
		{
			if(i!=nBuffer){
    1a96:	2c 01       	movw	r4, r24
    1a98:	84 ef       	ldi	r24, 0xF4	; 244
    1a9a:	48 1a       	sub	r4, r24
    1a9c:	8e ef       	ldi	r24, 0xFE	; 254
    1a9e:	58 0a       	sbc	r5, r24
					buf[j] = (char)buffer[i][j];
					buf[length]='\0';
					tempMessages[tempMessagesIndex]=new Message(buf, length);
					tempMessagesIndex++;
					bufferIndexes[i]=0;
					overflowedBuffers=false;
    1aa0:	f5 01       	movw	r30, r10
    1aa2:	e2 5f       	subi	r30, 0xF2	; 242
    1aa4:	fe 4f       	sbci	r31, 0xFE	; 254
    1aa6:	fa 87       	std	Y+10, r31	; 0x0a
    1aa8:	e9 87       	std	Y+9, r30	; 0x09
	Messages* UART::GetMessages(){
		char tempMessagesIndex=0;
		Message* tempMessages [UART_N_BUFFERS];
		for(char i=0; i<UART_N_BUFFERS; i++)
		{
			if(i!=nBuffer){
    1aaa:	f2 01       	movw	r30, r4
    1aac:	80 81       	ld	r24, Z
    1aae:	8e 15       	cp	r24, r14
    1ab0:	09 f4       	brne	.+2      	; 0x1ab4 <_ZN4UART11GetMessagesEv+0x58>
    1ab2:	4f c0       	rjmp	.+158    	; 0x1b52 <_ZN4UART11GetMessagesEv+0xf6>
				if(bufferIndexes[i]>0){
    1ab4:	47 01       	movw	r8, r14
    1ab6:	67 01       	movw	r12, r14
    1ab8:	cc 0c       	add	r12, r12
    1aba:	dd 1c       	adc	r13, r13
    1abc:	ca 0c       	add	r12, r10
    1abe:	db 1c       	adc	r13, r11
    1ac0:	f6 01       	movw	r30, r12
    1ac2:	84 81       	ldd	r24, Z+4	; 0x04
    1ac4:	95 81       	ldd	r25, Z+5	; 0x05
    1ac6:	18 16       	cp	r1, r24
    1ac8:	19 06       	cpc	r1, r25
    1aca:	0c f0       	brlt	.+2      	; 0x1ace <_ZN4UART11GetMessagesEv+0x72>
    1acc:	42 c0       	rjmp	.+132    	; 0x1b52 <_ZN4UART11GetMessagesEv+0xf6>

				unsigned int length = bufferIndexes[i];
    1ace:	04 81       	ldd	r16, Z+4	; 0x04
    1ad0:	15 81       	ldd	r17, Z+5	; 0x05
					char* buf = new char[ length+1];
    1ad2:	c8 01       	movw	r24, r16
    1ad4:	01 96       	adiw	r24, 0x01	; 1
    1ad6:	0e 94 81 08 	call	0x1102	; 0x1102 <_Znaj>
    1ada:	3c 01       	movw	r6, r24
					for (int j = 0; j < length; j++)
    1adc:	01 15       	cp	r16, r1
    1ade:	11 05       	cpc	r17, r1
    1ae0:	c1 f0       	breq	.+48     	; 0x1b12 <_ZN4UART11GetMessagesEv+0xb6>
    1ae2:	fc 01       	movw	r30, r24
    1ae4:	80 e0       	ldi	r24, 0x00	; 0
    1ae6:	90 e0       	ldi	r25, 0x00	; 0
					buf[j] = (char)buffer[i][j];
    1ae8:	00 24       	eor	r0, r0
    1aea:	96 94       	lsr	r9
    1aec:	87 94       	ror	r8
    1aee:	07 94       	ror	r0
    1af0:	96 94       	lsr	r9
    1af2:	87 94       	ror	r8
    1af4:	07 94       	ror	r0
    1af6:	98 2c       	mov	r9, r8
    1af8:	80 2c       	mov	r8, r0
    1afa:	8a 0c       	add	r8, r10
    1afc:	9b 1c       	adc	r9, r11
    1afe:	d4 01       	movw	r26, r8
    1b00:	a8 0f       	add	r26, r24
    1b02:	b9 1f       	adc	r27, r25
    1b04:	1c 96       	adiw	r26, 0x0c	; 12
    1b06:	2c 91       	ld	r18, X
    1b08:	21 93       	st	Z+, r18
			if(i!=nBuffer){
				if(bufferIndexes[i]>0){

				unsigned int length = bufferIndexes[i];
					char* buf = new char[ length+1];
					for (int j = 0; j < length; j++)
    1b0a:	01 96       	adiw	r24, 0x01	; 1
    1b0c:	08 17       	cp	r16, r24
    1b0e:	19 07       	cpc	r17, r25
    1b10:	b1 f7       	brne	.-20     	; 0x1afe <_ZN4UART11GetMessagesEv+0xa2>
					buf[j] = (char)buffer[i][j];
					buf[length]='\0';
    1b12:	f3 01       	movw	r30, r6
    1b14:	e0 0f       	add	r30, r16
    1b16:	f1 1f       	adc	r31, r17
    1b18:	10 82       	st	Z, r1
					tempMessages[tempMessagesIndex]=new Message(buf, length);
    1b1a:	84 e0       	ldi	r24, 0x04	; 4
    1b1c:	90 e0       	ldi	r25, 0x00	; 0
    1b1e:	0e 94 7e 08 	call	0x10fc	; 0x10fc <_Znwj>
    1b22:	4c 01       	movw	r8, r24
    1b24:	a8 01       	movw	r20, r16
    1b26:	b3 01       	movw	r22, r6
    1b28:	0e 94 ad 07 	call	0xf5a	; 0xf5a <_ZN7MessageC1EPKcj>
    1b2c:	e3 2d       	mov	r30, r3
    1b2e:	f0 e0       	ldi	r31, 0x00	; 0
    1b30:	ee 0f       	add	r30, r30
    1b32:	ff 1f       	adc	r31, r31
    1b34:	81 e0       	ldi	r24, 0x01	; 1
    1b36:	90 e0       	ldi	r25, 0x00	; 0
    1b38:	8c 0f       	add	r24, r28
    1b3a:	9d 1f       	adc	r25, r29
    1b3c:	e8 0f       	add	r30, r24
    1b3e:	f9 1f       	adc	r31, r25
    1b40:	91 82       	std	Z+1, r9	; 0x01
    1b42:	80 82       	st	Z, r8
					tempMessagesIndex++;
    1b44:	33 94       	inc	r3
					bufferIndexes[i]=0;
    1b46:	f6 01       	movw	r30, r12
    1b48:	15 82       	std	Z+5, r1	; 0x05
    1b4a:	14 82       	std	Z+4, r1	; 0x04
					overflowedBuffers=false;
    1b4c:	e9 85       	ldd	r30, Y+9	; 0x09
    1b4e:	fa 85       	ldd	r31, Y+10	; 0x0a
    1b50:	10 82       	st	Z, r1
    1b52:	ff ef       	ldi	r31, 0xFF	; 255
    1b54:	ef 1a       	sub	r14, r31
    1b56:	ff 0a       	sbc	r15, r31
		}
	}
	Messages* UART::GetMessages(){
		char tempMessagesIndex=0;
		Message* tempMessages [UART_N_BUFFERS];
		for(char i=0; i<UART_N_BUFFERS; i++)
    1b58:	84 e0       	ldi	r24, 0x04	; 4
    1b5a:	e8 16       	cp	r14, r24
    1b5c:	f1 04       	cpc	r15, r1
    1b5e:	09 f0       	breq	.+2      	; 0x1b62 <_ZN4UART11GetMessagesEv+0x106>
    1b60:	a4 cf       	rjmp	.-184    	; 0x1aaa <_ZN4UART11GetMessagesEv+0x4e>
					bufferIndexes[i]=0;
					overflowedBuffers=false;
				}
			}
		}
		Messages* m = (tempMessagesIndex>0)? new Messages(tempMessages, tempMessagesIndex):NULL;
    1b62:	33 20       	and	r3, r3
    1b64:	61 f0       	breq	.+24     	; 0x1b7e <_ZN4UART11GetMessagesEv+0x122>
    1b66:	84 e0       	ldi	r24, 0x04	; 4
    1b68:	90 e0       	ldi	r25, 0x00	; 0
    1b6a:	0e 94 7e 08 	call	0x10fc	; 0x10fc <_Znwj>
    1b6e:	8c 01       	movw	r16, r24
    1b70:	43 2d       	mov	r20, r3
    1b72:	be 01       	movw	r22, r28
    1b74:	6f 5f       	subi	r22, 0xFF	; 255
    1b76:	7f 4f       	sbci	r23, 0xFF	; 255
    1b78:	0e 94 bb 07 	call	0xf76	; 0xf76 <_ZN8MessagesC1EPP7Messagec>
    1b7c:	02 c0       	rjmp	.+4      	; 0x1b82 <_ZN4UART11GetMessagesEv+0x126>
    1b7e:	00 e0       	ldi	r16, 0x00	; 0
    1b80:	10 e0       	ldi	r17, 0x00	; 0
		return m;
}
    1b82:	c8 01       	movw	r24, r16
    1b84:	2a 96       	adiw	r28, 0x0a	; 10
    1b86:	0f b6       	in	r0, 0x3f	; 63
    1b88:	f8 94       	cli
    1b8a:	de bf       	out	0x3e, r29	; 62
    1b8c:	0f be       	out	0x3f, r0	; 63
    1b8e:	cd bf       	out	0x3d, r28	; 61
    1b90:	df 91       	pop	r29
    1b92:	cf 91       	pop	r28
    1b94:	1f 91       	pop	r17
    1b96:	0f 91       	pop	r16
    1b98:	ff 90       	pop	r15
    1b9a:	ef 90       	pop	r14
    1b9c:	df 90       	pop	r13
    1b9e:	cf 90       	pop	r12
    1ba0:	bf 90       	pop	r11
    1ba2:	af 90       	pop	r10
    1ba4:	9f 90       	pop	r9
    1ba6:	8f 90       	pop	r8
    1ba8:	7f 90       	pop	r7
    1baa:	6f 90       	pop	r6
    1bac:	5f 90       	pop	r5
    1bae:	4f 90       	pop	r4
    1bb0:	3f 90       	pop	r3
    1bb2:	08 95       	ret

00001bb4 <_ZThn2_N4UART11GetMessagesEv>:
    1bb4:	02 97       	sbiw	r24, 0x02	; 2
    1bb6:	0e 94 2e 0d 	call	0x1a5c	; 0x1a5c <_ZN4UART11GetMessagesEv>
    1bba:	08 95       	ret

00001bbc <_ZN4UART10InitializeEv>:
 initialized=true;
 }
	return _Singleton;
}
 void UART::Initialize ()
{
    1bbc:	fc 01       	movw	r30, r24
	//volatile int bufferIndexes[UART_N_BUFFERS];
	//volatile char buffer[UART_N_BUFFERS][UART_BUFFER_SIZE] ;
	
	nBuffer=0;
    1bbe:	dc 01       	movw	r26, r24
    1bc0:	a4 5f       	subi	r26, 0xF4	; 244
    1bc2:	be 4f       	sbci	r27, 0xFE	; 254
    1bc4:	1c 92       	st	X, r1
	overflowedCurrentBuffer=false;
    1bc6:	11 96       	adiw	r26, 0x01	; 1
    1bc8:	1c 92       	st	X, r1
	overflowedBuffers=false;
    1bca:	11 96       	adiw	r26, 0x01	; 1
    1bcc:	1c 92       	st	X, r1
	DDRD =DDRD&0xFE;
    1bce:	50 98       	cbi	0x0a, 0	; 10
	DDRD = DDRD | 0x2;
    1bd0:	51 9a       	sbi	0x0a, 1	; 10
//PORTD=PORTD&0x1;
	for(char i=0; i<UART_N_BUFFERS; i++)
	{
		bufferIndexes[i]=0;
    1bd2:	15 82       	std	Z+5, r1	; 0x05
    1bd4:	14 82       	std	Z+4, r1	; 0x04
    1bd6:	17 82       	std	Z+7, r1	; 0x07
    1bd8:	16 82       	std	Z+6, r1	; 0x06
    1bda:	11 86       	std	Z+9, r1	; 0x09
    1bdc:	10 86       	std	Z+8, r1	; 0x08
    1bde:	13 86       	std	Z+11, r1	; 0x0b
    1be0:	12 86       	std	Z+10, r1	; 0x0a
	}
	UBRR0H = UBRRH_VALUE;
    1be2:	10 92 c5 00 	sts	0x00C5, r1	; 0x8000c5 <__TEXT_REGION_LENGTH__+0x7e00c5>
	UBRR0L = UBRRL_VALUE;
    1be6:	83 e3       	ldi	r24, 0x33	; 51
    1be8:	80 93 c4 00 	sts	0x00C4, r24	; 0x8000c4 <__TEXT_REGION_LENGTH__+0x7e00c4>
	#if USE_U2X
	UCSR0A |= (1<<U2X0);
	#else
	UCSR0A &= ~(1<<U2X0);
    1bec:	e0 ec       	ldi	r30, 0xC0	; 192
    1bee:	f0 e0       	ldi	r31, 0x00	; 0
    1bf0:	80 81       	ld	r24, Z
    1bf2:	8d 7f       	andi	r24, 0xFD	; 253
    1bf4:	80 83       	st	Z, r24
	#endif
	/*Enable receiver and transmitter */
	UCSR0B = (1<<RXEN0)|(1<<TXEN0)|( 1<<RXCIE0);
    1bf6:	88 e9       	ldi	r24, 0x98	; 152
    1bf8:	80 93 c1 00 	sts	0x00C1, r24	; 0x8000c1 <__TEXT_REGION_LENGTH__+0x7e00c1>

	UCSR0C |= (1<<UCSZ01)|(1<<UCSZ00);
    1bfc:	e2 ec       	ldi	r30, 0xC2	; 194
    1bfe:	f0 e0       	ldi	r31, 0x00	; 0
    1c00:	80 81       	ld	r24, Z
    1c02:	86 60       	ori	r24, 0x06	; 6
    1c04:	80 83       	st	Z, r24

	sei();
    1c06:	78 94       	sei
    1c08:	08 95       	ret

00001c0a <_ZN4UART11GetInstanceEv>:
#include <util/setbaud.h>

 UART UART:: _Singleton;
  UART& UART::GetInstance(){
 static bool initialized=false;
 if(!initialized)
    1c0a:	80 91 e6 02 	lds	r24, 0x02E6	; 0x8002e6 <_ZZN4UART11GetInstanceEvE11initialized>
    1c0e:	81 11       	cpse	r24, r1
    1c10:	07 c0       	rjmp	.+14     	; 0x1c20 <_ZN4UART11GetInstanceEv+0x16>
 {
 _Singleton.Initialize();
    1c12:	87 ee       	ldi	r24, 0xE7	; 231
    1c14:	92 e0       	ldi	r25, 0x02	; 2
    1c16:	0e 94 de 0d 	call	0x1bbc	; 0x1bbc <_ZN4UART10InitializeEv>
 initialized=true;
    1c1a:	81 e0       	ldi	r24, 0x01	; 1
    1c1c:	80 93 e6 02 	sts	0x02E6, r24	; 0x8002e6 <_ZZN4UART11GetInstanceEvE11initialized>
 }
	return _Singleton;
}
    1c20:	87 ee       	ldi	r24, 0xE7	; 231
    1c22:	92 e0       	ldi	r25, 0x02	; 2
    1c24:	08 95       	ret

00001c26 <_ZN4UART8IncomingEv>:

	sei();
}

void UART::Incoming(){
	unsigned char data = UDR0;
    1c26:	20 91 c6 00 	lds	r18, 0x00C6	; 0x8000c6 <__TEXT_REGION_LENGTH__+0x7e00c6>
	if(    data==13||data==10   )
    1c2a:	2d 30       	cpi	r18, 0x0D	; 13
    1c2c:	19 f0       	breq	.+6      	; 0x1c34 <_ZN4UART8IncomingEv+0xe>
    1c2e:	2a 30       	cpi	r18, 0x0A	; 10
    1c30:	09 f0       	breq	.+2      	; 0x1c34 <_ZN4UART8IncomingEv+0xe>
    1c32:	67 c0       	rjmp	.+206    	; 0x1d02 <_ZN4UART8IncomingEv+0xdc>
	{
		if(bufferIndexes[nBuffer]!=0)
    1c34:	fc 01       	movw	r30, r24
    1c36:	e4 5f       	subi	r30, 0xF4	; 244
    1c38:	fe 4f       	sbci	r31, 0xFE	; 254
    1c3a:	e0 81       	ld	r30, Z
    1c3c:	f0 e0       	ldi	r31, 0x00	; 0
    1c3e:	32 96       	adiw	r30, 0x02	; 2
    1c40:	ee 0f       	add	r30, r30
    1c42:	ff 1f       	adc	r31, r31
    1c44:	e8 0f       	add	r30, r24
    1c46:	f9 1f       	adc	r31, r25
    1c48:	20 81       	ld	r18, Z
    1c4a:	31 81       	ldd	r19, Z+1	; 0x01
    1c4c:	23 2b       	or	r18, r19
    1c4e:	09 f4       	brne	.+2      	; 0x1c52 <_ZN4UART8IncomingEv+0x2c>
    1c50:	94 c0       	rjmp	.+296    	; 0x1d7a <_ZN4UART8IncomingEv+0x154>
		{
			if(!overflowedCurrentBuffer)
    1c52:	fc 01       	movw	r30, r24
    1c54:	e3 5f       	subi	r30, 0xF3	; 243
    1c56:	fe 4f       	sbci	r31, 0xFE	; 254
    1c58:	20 81       	ld	r18, Z
    1c5a:	21 11       	cpse	r18, r1
    1c5c:	41 c0       	rjmp	.+130    	; 0x1ce0 <_ZN4UART8IncomingEv+0xba>
			{
				if(nBuffer<UART_N_BUFFERS-1)
    1c5e:	31 97       	sbiw	r30, 0x01	; 1
    1c60:	20 81       	ld	r18, Z
    1c62:	23 30       	cpi	r18, 0x03	; 3
    1c64:	30 f0       	brcs	.+12     	; 0x1c72 <_ZN4UART8IncomingEv+0x4c>
				}
				else
				{
					for(char i=0; i<UART_N_BUFFERS; i++)
					{
						if(bufferIndexes[i]==0)
    1c66:	fc 01       	movw	r30, r24
    1c68:	24 81       	ldd	r18, Z+4	; 0x04
    1c6a:	35 81       	ldd	r19, Z+5	; 0x05
    1c6c:	23 2b       	or	r18, r19
    1c6e:	a9 f4       	brne	.+42     	; 0x1c9a <_ZN4UART8IncomingEv+0x74>
    1c70:	27 c0       	rjmp	.+78     	; 0x1cc0 <_ZN4UART8IncomingEv+0x9a>
		{
			if(!overflowedCurrentBuffer)
			{
				if(nBuffer<UART_N_BUFFERS-1)
				{
					nBuffer++;
    1c72:	fc 01       	movw	r30, r24
    1c74:	e4 5f       	subi	r30, 0xF4	; 244
    1c76:	fe 4f       	sbci	r31, 0xFE	; 254
    1c78:	20 81       	ld	r18, Z
    1c7a:	2f 5f       	subi	r18, 0xFF	; 255
    1c7c:	20 83       	st	Z, r18
					bufferIndexes[nBuffer]=0;
    1c7e:	e0 81       	ld	r30, Z
    1c80:	f0 e0       	ldi	r31, 0x00	; 0
    1c82:	32 96       	adiw	r30, 0x02	; 2
    1c84:	ee 0f       	add	r30, r30
    1c86:	ff 1f       	adc	r31, r31
    1c88:	e8 0f       	add	r30, r24
    1c8a:	f9 1f       	adc	r31, r25
    1c8c:	11 82       	std	Z+1, r1	; 0x01
    1c8e:	10 82       	st	Z, r1
					overflowedCurrentBuffer=false;
    1c90:	fc 01       	movw	r30, r24
    1c92:	e3 5f       	subi	r30, 0xF3	; 243
    1c94:	fe 4f       	sbci	r31, 0xFE	; 254
    1c96:	10 82       	st	Z, r1
    1c98:	08 95       	ret
				}
				else
				{
					for(char i=0; i<UART_N_BUFFERS; i++)
					{
						if(bufferIndexes[i]==0)
    1c9a:	fc 01       	movw	r30, r24
    1c9c:	26 81       	ldd	r18, Z+6	; 0x06
    1c9e:	37 81       	ldd	r19, Z+7	; 0x07
    1ca0:	23 2b       	or	r18, r19
    1ca2:	51 f0       	breq	.+20     	; 0x1cb8 <_ZN4UART8IncomingEv+0x92>
    1ca4:	20 85       	ldd	r18, Z+8	; 0x08
    1ca6:	31 85       	ldd	r19, Z+9	; 0x09
    1ca8:	23 2b       	or	r18, r19
    1caa:	41 f0       	breq	.+16     	; 0x1cbc <_ZN4UART8IncomingEv+0x96>
    1cac:	22 85       	ldd	r18, Z+10	; 0x0a
    1cae:	33 85       	ldd	r19, Z+11	; 0x0b
    1cb0:	23 2b       	or	r18, r19
    1cb2:	81 f4       	brne	.+32     	; 0x1cd4 <_ZN4UART8IncomingEv+0xae>
					overflowedCurrentBuffer=false;

				}
				else
				{
					for(char i=0; i<UART_N_BUFFERS; i++)
    1cb4:	23 e0       	ldi	r18, 0x03	; 3
    1cb6:	05 c0       	rjmp	.+10     	; 0x1cc2 <_ZN4UART8IncomingEv+0x9c>
    1cb8:	21 e0       	ldi	r18, 0x01	; 1
    1cba:	03 c0       	rjmp	.+6      	; 0x1cc2 <_ZN4UART8IncomingEv+0x9c>
    1cbc:	22 e0       	ldi	r18, 0x02	; 2
    1cbe:	01 c0       	rjmp	.+2      	; 0x1cc2 <_ZN4UART8IncomingEv+0x9c>
					{
						if(bufferIndexes[i]==0)
    1cc0:	20 e0       	ldi	r18, 0x00	; 0
						{
							nBuffer=i;
    1cc2:	fc 01       	movw	r30, r24
    1cc4:	e4 5f       	subi	r30, 0xF4	; 244
    1cc6:	fe 4f       	sbci	r31, 0xFE	; 254
    1cc8:	20 83       	st	Z, r18
							overflowedCurrentBuffer=false;
    1cca:	31 96       	adiw	r30, 0x01	; 1
    1ccc:	10 82       	st	Z, r1
							overflowedBuffers=false;
    1cce:	31 96       	adiw	r30, 0x01	; 1
    1cd0:	10 82       	st	Z, r1
							return;
    1cd2:	08 95       	ret
						}
					}
					overflowedBuffers=true;
    1cd4:	fc 01       	movw	r30, r24
    1cd6:	e2 5f       	subi	r30, 0xF2	; 242
    1cd8:	fe 4f       	sbci	r31, 0xFE	; 254
    1cda:	21 e0       	ldi	r18, 0x01	; 1
    1cdc:	20 83       	st	Z, r18
    1cde:	08 95       	ret
				}
			}
			else
			{
				overflowedCurrentBuffer=false;
    1ce0:	fc 01       	movw	r30, r24
    1ce2:	e3 5f       	subi	r30, 0xF3	; 243
    1ce4:	fe 4f       	sbci	r31, 0xFE	; 254
    1ce6:	10 82       	st	Z, r1
				bufferIndexes[nBuffer]=0;
    1ce8:	31 97       	sbiw	r30, 0x01	; 1
    1cea:	20 81       	ld	r18, Z
    1cec:	30 e0       	ldi	r19, 0x00	; 0
    1cee:	2e 5f       	subi	r18, 0xFE	; 254
    1cf0:	3f 4f       	sbci	r19, 0xFF	; 255
    1cf2:	22 0f       	add	r18, r18
    1cf4:	33 1f       	adc	r19, r19
    1cf6:	fc 01       	movw	r30, r24
    1cf8:	e2 0f       	add	r30, r18
    1cfa:	f3 1f       	adc	r31, r19
    1cfc:	11 82       	std	Z+1, r1	; 0x01
    1cfe:	10 82       	st	Z, r1
    1d00:	08 95       	ret
			}
		}
	}
	else
	{
		if(!overflowedCurrentBuffer&&!overflowedBuffers)
    1d02:	fc 01       	movw	r30, r24
    1d04:	e3 5f       	subi	r30, 0xF3	; 243
    1d06:	fe 4f       	sbci	r31, 0xFE	; 254
    1d08:	30 81       	ld	r19, Z
    1d0a:	31 11       	cpse	r19, r1
    1d0c:	36 c0       	rjmp	.+108    	; 0x1d7a <_ZN4UART8IncomingEv+0x154>
    1d0e:	31 96       	adiw	r30, 0x01	; 1
    1d10:	30 81       	ld	r19, Z
    1d12:	31 11       	cpse	r19, r1
    1d14:	32 c0       	rjmp	.+100    	; 0x1d7a <_ZN4UART8IncomingEv+0x154>
    1d16:	21 c0       	rjmp	.+66     	; 0x1d5a <_ZN4UART8IncomingEv+0x134>
		{
			int bufferIndex=bufferIndexes[nBuffer];
			if(bufferIndex>=UART_BUFFER_SIZE)
			{
				overflowedCurrentBuffer=true;
    1d18:	fc 01       	movw	r30, r24
    1d1a:	e3 5f       	subi	r30, 0xF3	; 243
    1d1c:	fe 4f       	sbci	r31, 0xFE	; 254
    1d1e:	21 e0       	ldi	r18, 0x01	; 1
    1d20:	20 83       	st	Z, r18
    1d22:	08 95       	ret
			}
			else{
					buffer[nBuffer][bufferIndex]=data;
    1d24:	dc 01       	movw	r26, r24
    1d26:	a4 5f       	subi	r26, 0xF4	; 244
    1d28:	be 4f       	sbci	r27, 0xFE	; 254
    1d2a:	3c 91       	ld	r19, X
    1d2c:	fc 01       	movw	r30, r24
    1d2e:	60 e4       	ldi	r22, 0x40	; 64
    1d30:	36 9f       	mul	r19, r22
    1d32:	e0 0d       	add	r30, r0
    1d34:	f1 1d       	adc	r31, r1
    1d36:	11 24       	eor	r1, r1
    1d38:	e4 0f       	add	r30, r20
    1d3a:	f5 1f       	adc	r31, r21
    1d3c:	24 87       	std	Z+12, r18	; 0x0c
					bufferIndexes[nBuffer]=bufferIndex+1;
    1d3e:	2c 91       	ld	r18, X
    1d40:	30 e0       	ldi	r19, 0x00	; 0
    1d42:	4f 5f       	subi	r20, 0xFF	; 255
    1d44:	5f 4f       	sbci	r21, 0xFF	; 255
    1d46:	2e 5f       	subi	r18, 0xFE	; 254
    1d48:	3f 4f       	sbci	r19, 0xFF	; 255
    1d4a:	22 0f       	add	r18, r18
    1d4c:	33 1f       	adc	r19, r19
    1d4e:	fc 01       	movw	r30, r24
    1d50:	e2 0f       	add	r30, r18
    1d52:	f3 1f       	adc	r31, r19
    1d54:	51 83       	std	Z+1, r21	; 0x01
    1d56:	40 83       	st	Z, r20
    1d58:	08 95       	ret
	}
	else
	{
		if(!overflowedCurrentBuffer&&!overflowedBuffers)
		{
			int bufferIndex=bufferIndexes[nBuffer];
    1d5a:	fc 01       	movw	r30, r24
    1d5c:	e4 5f       	subi	r30, 0xF4	; 244
    1d5e:	fe 4f       	sbci	r31, 0xFE	; 254
    1d60:	e0 81       	ld	r30, Z
    1d62:	f0 e0       	ldi	r31, 0x00	; 0
    1d64:	32 96       	adiw	r30, 0x02	; 2
    1d66:	ee 0f       	add	r30, r30
    1d68:	ff 1f       	adc	r31, r31
    1d6a:	e8 0f       	add	r30, r24
    1d6c:	f9 1f       	adc	r31, r25
    1d6e:	40 81       	ld	r20, Z
    1d70:	51 81       	ldd	r21, Z+1	; 0x01
			if(bufferIndex>=UART_BUFFER_SIZE)
    1d72:	40 34       	cpi	r20, 0x40	; 64
    1d74:	51 05       	cpc	r21, r1
    1d76:	b4 f2       	brlt	.-84     	; 0x1d24 <_ZN4UART8IncomingEv+0xfe>
    1d78:	cf cf       	rjmp	.-98     	; 0x1d18 <_ZN4UART8IncomingEv+0xf2>
    1d7a:	08 95       	ret

00001d7c <__vector_18>:
			}
		}
		Messages* m = (tempMessagesIndex>0)? new Messages(tempMessages, tempMessagesIndex):NULL;
		return m;
}
	ISR(USART_RX_vect){
    1d7c:	1f 92       	push	r1
    1d7e:	0f 92       	push	r0
    1d80:	0f b6       	in	r0, 0x3f	; 63
    1d82:	0f 92       	push	r0
    1d84:	11 24       	eor	r1, r1
    1d86:	2f 93       	push	r18
    1d88:	3f 93       	push	r19
    1d8a:	4f 93       	push	r20
    1d8c:	5f 93       	push	r21
    1d8e:	6f 93       	push	r22
    1d90:	7f 93       	push	r23
    1d92:	8f 93       	push	r24
    1d94:	9f 93       	push	r25
    1d96:	af 93       	push	r26
    1d98:	bf 93       	push	r27
    1d9a:	ef 93       	push	r30
    1d9c:	ff 93       	push	r31
		cli();
    1d9e:	f8 94       	cli
		UART::GetInstance().Incoming();
    1da0:	0e 94 05 0e 	call	0x1c0a	; 0x1c0a <_ZN4UART11GetInstanceEv>
    1da4:	0e 94 13 0e 	call	0x1c26	; 0x1c26 <_ZN4UART8IncomingEv>
		sei();
    1da8:	78 94       	sei
	}
    1daa:	ff 91       	pop	r31
    1dac:	ef 91       	pop	r30
    1dae:	bf 91       	pop	r27
    1db0:	af 91       	pop	r26
    1db2:	9f 91       	pop	r25
    1db4:	8f 91       	pop	r24
    1db6:	7f 91       	pop	r23
    1db8:	6f 91       	pop	r22
    1dba:	5f 91       	pop	r21
    1dbc:	4f 91       	pop	r20
    1dbe:	3f 91       	pop	r19
    1dc0:	2f 91       	pop	r18
    1dc2:	0f 90       	pop	r0
    1dc4:	0f be       	out	0x3f, r0	; 63
    1dc6:	0f 90       	pop	r0
    1dc8:	1f 90       	pop	r1
    1dca:	18 95       	reti

00001dcc <_ZN4UART4SendEc>:
	void UART::Send(char message){
		while((UCSR0A & 0X20)!=0X20); 		/* wait till data register is empty*/
    1dcc:	e0 ec       	ldi	r30, 0xC0	; 192
    1dce:	f0 e0       	ldi	r31, 0x00	; 0
    1dd0:	80 81       	ld	r24, Z
    1dd2:	85 ff       	sbrs	r24, 5
    1dd4:	fd cf       	rjmp	.-6      	; 0x1dd0 <_ZN4UART4SendEc+0x4>
		UDR0=message;
    1dd6:	60 93 c6 00 	sts	0x00C6, r22	; 0x8000c6 <__TEXT_REGION_LENGTH__+0x7e00c6>
    1dda:	08 95       	ret

00001ddc <_ZN4UART11SendMessageEPKcj>:
	}
	void UART::SendMessage(const char* message, unsigned int length){
    1ddc:	ef 92       	push	r14
    1dde:	ff 92       	push	r15
    1de0:	0f 93       	push	r16
    1de2:	1f 93       	push	r17
    1de4:	cf 93       	push	r28
    1de6:	df 93       	push	r29
		for(unsigned int i=0; i<length; i++)
    1de8:	41 15       	cp	r20, r1
    1dea:	51 05       	cpc	r21, r1
    1dec:	61 f0       	breq	.+24     	; 0x1e06 <_ZN4UART11SendMessageEPKcj+0x2a>
    1dee:	8b 01       	movw	r16, r22
    1df0:	7c 01       	movw	r14, r24
    1df2:	eb 01       	movw	r28, r22
    1df4:	04 0f       	add	r16, r20
    1df6:	15 1f       	adc	r17, r21
		Send(*(message+i));
    1df8:	69 91       	ld	r22, Y+
    1dfa:	c7 01       	movw	r24, r14
    1dfc:	0e 94 e6 0e 	call	0x1dcc	; 0x1dcc <_ZN4UART4SendEc>
	void UART::Send(char message){
		while((UCSR0A & 0X20)!=0X20); 		/* wait till data register is empty*/
		UDR0=message;
	}
	void UART::SendMessage(const char* message, unsigned int length){
		for(unsigned int i=0; i<length; i++)
    1e00:	c0 17       	cp	r28, r16
    1e02:	d1 07       	cpc	r29, r17
    1e04:	c9 f7       	brne	.-14     	; 0x1df8 <_ZN4UART11SendMessageEPKcj+0x1c>
		Send(*(message+i));
    1e06:	df 91       	pop	r29
    1e08:	cf 91       	pop	r28
    1e0a:	1f 91       	pop	r17
    1e0c:	0f 91       	pop	r16
    1e0e:	ff 90       	pop	r15
    1e10:	ef 90       	pop	r14
    1e12:	08 95       	ret

00001e14 <_GLOBAL__sub_I__ZN4UART10_SingletonE>:
void operator=(UART const&) = delete; // Don't implement
protected:
public:

private:
UART(){}
    1e14:	e7 ee       	ldi	r30, 0xE7	; 231
    1e16:	f2 e0       	ldi	r31, 0x02	; 2
    1e18:	86 e8       	ldi	r24, 0x86	; 134
    1e1a:	91 e0       	ldi	r25, 0x01	; 1
    1e1c:	91 83       	std	Z+1, r25	; 0x01
    1e1e:	80 83       	st	Z, r24
    1e20:	8e e8       	ldi	r24, 0x8E	; 142
    1e22:	91 e0       	ldi	r25, 0x01	; 1
    1e24:	93 83       	std	Z+3, r25	; 0x03
    1e26:	82 83       	std	Z+2, r24	; 0x02
    1e28:	08 95       	ret

00001e2a <_ZN4Leds3Led6TurnOnEv>:
backlight->TurnOff();
main->TurnOff();
}
Leds::Led::Led(Leds* leds, OnOff on, OnOff off):leds(leds), on(on), off(off){
	
}
    1e2a:	dc 01       	movw	r26, r24
    1e2c:	14 96       	adiw	r26, 0x04	; 4
    1e2e:	2d 91       	ld	r18, X+
    1e30:	3c 91       	ld	r19, X
    1e32:	15 97       	sbiw	r26, 0x05	; 5
    1e34:	20 fd       	sbrc	r18, 0
    1e36:	05 c0       	rjmp	.+10     	; 0x1e42 <_ZN4Leds3Led6TurnOnEv+0x18>
    1e38:	12 96       	adiw	r26, 0x02	; 2
    1e3a:	ed 91       	ld	r30, X+
    1e3c:	fc 91       	ld	r31, X
    1e3e:	13 97       	sbiw	r26, 0x03	; 3
    1e40:	15 c0       	rjmp	.+42     	; 0x1e6c <_ZN4Leds3Led6TurnOnEv+0x42>
    1e42:	1a 96       	adiw	r26, 0x0a	; 10
    1e44:	ed 91       	ld	r30, X+
    1e46:	fc 91       	ld	r31, X
    1e48:	1b 97       	sbiw	r26, 0x0b	; 11
    1e4a:	c9 01       	movw	r24, r18
    1e4c:	95 95       	asr	r25
    1e4e:	87 95       	ror	r24
    1e50:	e8 0f       	add	r30, r24
    1e52:	f9 1f       	adc	r31, r25
    1e54:	01 90       	ld	r0, Z+
    1e56:	f0 81       	ld	r31, Z
    1e58:	e0 2d       	mov	r30, r0
    1e5a:	12 96       	adiw	r26, 0x02	; 2
    1e5c:	8d 91       	ld	r24, X+
    1e5e:	9c 91       	ld	r25, X
    1e60:	13 97       	sbiw	r26, 0x03	; 3
    1e62:	e8 0f       	add	r30, r24
    1e64:	f9 1f       	adc	r31, r25
    1e66:	01 90       	ld	r0, Z+
    1e68:	f0 81       	ld	r31, Z
    1e6a:	e0 2d       	mov	r30, r0
    1e6c:	35 95       	asr	r19
    1e6e:	27 95       	ror	r18
    1e70:	1a 96       	adiw	r26, 0x0a	; 10
    1e72:	8d 91       	ld	r24, X+
    1e74:	9c 91       	ld	r25, X
    1e76:	1b 97       	sbiw	r26, 0x0b	; 11
    1e78:	82 0f       	add	r24, r18
    1e7a:	93 1f       	adc	r25, r19
    1e7c:	09 95       	icall
    1e7e:	08 95       	ret

00001e80 <_ZN4Leds3Led7TurnOffEv>:
    1e80:	dc 01       	movw	r26, r24
    1e82:	18 96       	adiw	r26, 0x08	; 8
    1e84:	2d 91       	ld	r18, X+
    1e86:	3c 91       	ld	r19, X
    1e88:	19 97       	sbiw	r26, 0x09	; 9
    1e8a:	20 fd       	sbrc	r18, 0
    1e8c:	05 c0       	rjmp	.+10     	; 0x1e98 <_ZN4Leds3Led7TurnOffEv+0x18>
    1e8e:	16 96       	adiw	r26, 0x06	; 6
    1e90:	ed 91       	ld	r30, X+
    1e92:	fc 91       	ld	r31, X
    1e94:	17 97       	sbiw	r26, 0x07	; 7
    1e96:	15 c0       	rjmp	.+42     	; 0x1ec2 <_ZN4Leds3Led7TurnOffEv+0x42>
    1e98:	1a 96       	adiw	r26, 0x0a	; 10
    1e9a:	ed 91       	ld	r30, X+
    1e9c:	fc 91       	ld	r31, X
    1e9e:	1b 97       	sbiw	r26, 0x0b	; 11
    1ea0:	c9 01       	movw	r24, r18
    1ea2:	95 95       	asr	r25
    1ea4:	87 95       	ror	r24
    1ea6:	e8 0f       	add	r30, r24
    1ea8:	f9 1f       	adc	r31, r25
    1eaa:	01 90       	ld	r0, Z+
    1eac:	f0 81       	ld	r31, Z
    1eae:	e0 2d       	mov	r30, r0
    1eb0:	16 96       	adiw	r26, 0x06	; 6
    1eb2:	8d 91       	ld	r24, X+
    1eb4:	9c 91       	ld	r25, X
    1eb6:	17 97       	sbiw	r26, 0x07	; 7
    1eb8:	e8 0f       	add	r30, r24
    1eba:	f9 1f       	adc	r31, r25
    1ebc:	01 90       	ld	r0, Z+
    1ebe:	f0 81       	ld	r31, Z
    1ec0:	e0 2d       	mov	r30, r0
    1ec2:	35 95       	asr	r19
    1ec4:	27 95       	ror	r18
    1ec6:	1a 96       	adiw	r26, 0x0a	; 10
    1ec8:	8d 91       	ld	r24, X+
    1eca:	9c 91       	ld	r25, X
    1ecc:	1b 97       	sbiw	r26, 0x0b	; 11
    1ece:	82 0f       	add	r24, r18
    1ed0:	93 1f       	adc	r25, r19
    1ed2:	09 95       	icall
    1ed4:	08 95       	ret

00001ed6 <_ZN4Leds9SetMainOnEv>:
    1ed6:	0e 94 d9 0f 	call	0x1fb2	; 0x1fb2 <_ZN7Outputs2PD2_26SetLowEv>
    1eda:	08 95       	ret

00001edc <_ZN4Leds10SetMainOffEv>:
    1edc:	0e 94 d7 0f 	call	0x1fae	; 0x1fae <_ZN7Outputs2PD2_27SetHighEv>
    1ee0:	08 95       	ret

00001ee2 <_ZN4Leds14SetBacklightOnEv>:
    1ee2:	0e 94 db 0f 	call	0x1fb6	; 0x1fb6 <_ZN7Outputs2PD2_37SetHighEv>
    1ee6:	08 95       	ret

00001ee8 <_ZN4Leds15SetBacklightOffEv>:
    1ee8:	0e 94 dd 0f 	call	0x1fba	; 0x1fba <_ZN7Outputs2PD2_36SetLowEv>
    1eec:	08 95       	ret

00001eee <_ZN4Leds11GetInstanceEv>:
    1eee:	86 ef       	ldi	r24, 0xF6	; 246
    1ef0:	93 e0       	ldi	r25, 0x03	; 3
    1ef2:	08 95       	ret

00001ef4 <_ZN4LedsC1Ev>:
    1ef4:	0f 93       	push	r16
    1ef6:	1f 93       	push	r17
    1ef8:	cf 93       	push	r28
    1efa:	df 93       	push	r29
    1efc:	ec 01       	movw	r28, r24
    1efe:	8c e0       	ldi	r24, 0x0C	; 12
    1f00:	90 e0       	ldi	r25, 0x00	; 0
    1f02:	0e 94 7e 08 	call	0x10fc	; 0x10fc <_Znwj>
    1f06:	fc 01       	movw	r30, r24
    1f08:	04 e9       	ldi	r16, 0x94	; 148
    1f0a:	11 e0       	ldi	r17, 0x01	; 1
    1f0c:	11 83       	std	Z+1, r17	; 0x01
    1f0e:	00 83       	st	Z, r16
    1f10:	81 e7       	ldi	r24, 0x71	; 113
    1f12:	9f e0       	ldi	r25, 0x0F	; 15
    1f14:	93 83       	std	Z+3, r25	; 0x03
    1f16:	82 83       	std	Z+2, r24	; 0x02
    1f18:	15 82       	std	Z+5, r1	; 0x05
    1f1a:	14 82       	std	Z+4, r1	; 0x04
    1f1c:	84 e7       	ldi	r24, 0x74	; 116
    1f1e:	9f e0       	ldi	r25, 0x0F	; 15
    1f20:	97 83       	std	Z+7, r25	; 0x07
    1f22:	86 83       	std	Z+6, r24	; 0x06
    1f24:	11 86       	std	Z+9, r1	; 0x09
    1f26:	10 86       	std	Z+8, r1	; 0x08
    1f28:	d3 87       	std	Z+11, r29	; 0x0b
    1f2a:	c2 87       	std	Z+10, r28	; 0x0a
    1f2c:	f9 83       	std	Y+1, r31	; 0x01
    1f2e:	e8 83       	st	Y, r30
    1f30:	8c e0       	ldi	r24, 0x0C	; 12
    1f32:	90 e0       	ldi	r25, 0x00	; 0
    1f34:	0e 94 7e 08 	call	0x10fc	; 0x10fc <_Znwj>
    1f38:	fc 01       	movw	r30, r24
    1f3a:	11 83       	std	Z+1, r17	; 0x01
    1f3c:	00 83       	st	Z, r16
    1f3e:	8b e6       	ldi	r24, 0x6B	; 107
    1f40:	9f e0       	ldi	r25, 0x0F	; 15
    1f42:	93 83       	std	Z+3, r25	; 0x03
    1f44:	82 83       	std	Z+2, r24	; 0x02
    1f46:	15 82       	std	Z+5, r1	; 0x05
    1f48:	14 82       	std	Z+4, r1	; 0x04
    1f4a:	8e e6       	ldi	r24, 0x6E	; 110
    1f4c:	9f e0       	ldi	r25, 0x0F	; 15
    1f4e:	97 83       	std	Z+7, r25	; 0x07
    1f50:	86 83       	std	Z+6, r24	; 0x06
    1f52:	11 86       	std	Z+9, r1	; 0x09
    1f54:	10 86       	std	Z+8, r1	; 0x08
    1f56:	d3 87       	std	Z+11, r29	; 0x0b
    1f58:	c2 87       	std	Z+10, r28	; 0x0a
    1f5a:	fb 83       	std	Y+3, r31	; 0x03
    1f5c:	ea 83       	std	Y+2, r30	; 0x02
    1f5e:	88 81       	ld	r24, Y
    1f60:	99 81       	ldd	r25, Y+1	; 0x01
    1f62:	dc 01       	movw	r26, r24
    1f64:	ed 91       	ld	r30, X+
    1f66:	fc 91       	ld	r31, X
    1f68:	02 80       	ldd	r0, Z+2	; 0x02
    1f6a:	f3 81       	ldd	r31, Z+3	; 0x03
    1f6c:	e0 2d       	mov	r30, r0
    1f6e:	09 95       	icall
    1f70:	8a 81       	ldd	r24, Y+2	; 0x02
    1f72:	9b 81       	ldd	r25, Y+3	; 0x03
    1f74:	dc 01       	movw	r26, r24
    1f76:	ed 91       	ld	r30, X+
    1f78:	fc 91       	ld	r31, X
    1f7a:	02 80       	ldd	r0, Z+2	; 0x02
    1f7c:	f3 81       	ldd	r31, Z+3	; 0x03
    1f7e:	e0 2d       	mov	r30, r0
    1f80:	09 95       	icall
    1f82:	df 91       	pop	r29
    1f84:	cf 91       	pop	r28
    1f86:	1f 91       	pop	r17
    1f88:	0f 91       	pop	r16
    1f8a:	08 95       	ret

00001f8c <_ZN4Leds12GetBacklightEv>:
	Outputs::PD::_3::SetHigh();
}
void Leds::SetBacklightOff(){
	Outputs::PD::_3::SetLow();
}
ILed* Leds::GetBacklight(){return backlight;}
    1f8c:	fc 01       	movw	r30, r24
    1f8e:	80 81       	ld	r24, Z
    1f90:	91 81       	ldd	r25, Z+1	; 0x01
    1f92:	08 95       	ret

00001f94 <_ZN4Leds7GetMainEv>:
ILed* Leds::GetMain(){return main;}
    1f94:	fc 01       	movw	r30, r24
    1f96:	82 81       	ldd	r24, Z+2	; 0x02
    1f98:	93 81       	ldd	r25, Z+3	; 0x03
    1f9a:	08 95       	ret

00001f9c <_GLOBAL__sub_I__ZN4Leds10_SingletonE>:


#include "Leds.h"
#include "Outputs.h"

Leds Leds:: _Singleton;
    1f9c:	86 ef       	ldi	r24, 0xF6	; 246
    1f9e:	93 e0       	ldi	r25, 0x03	; 3
    1fa0:	0e 94 7a 0f 	call	0x1ef4	; 0x1ef4 <_ZN4LedsC1Ev>
    1fa4:	08 95       	ret

00001fa6 <_ZN7Outputs10InitializeEv>:
Outputs::~Outputs()
{
} //~Outputs
void Outputs::Initialize(){
	//DDRB = 0x20;
	DDRD = DDRD | 0x0C ;
    1fa6:	8a b1       	in	r24, 0x0a	; 10
    1fa8:	8c 60       	ori	r24, 0x0C	; 12
    1faa:	8a b9       	out	0x0a, r24	; 10
    1fac:	08 95       	ret

00001fae <_ZN7Outputs2PD2_27SetHighEv>:
	//PORTC =0x00;
	//DDRC = DDRC | 0xf;
	//PORTC = 0X00;
}
void Outputs::PD::_2::SetHigh(){
	PORTD = PORTD|0x04;
    1fae:	5a 9a       	sbi	0x0b, 2	; 11
    1fb0:	08 95       	ret

00001fb2 <_ZN7Outputs2PD2_26SetLowEv>:

}
void Outputs::PD::_2::SetLow(){
	PORTD= PORTD&0xFB;
    1fb2:	5a 98       	cbi	0x0b, 2	; 11
    1fb4:	08 95       	ret

00001fb6 <_ZN7Outputs2PD2_37SetHighEv>:
}
void Outputs::PD::_3::SetHigh(){
	PORTD = PORTD|0x08;
    1fb6:	5b 9a       	sbi	0x0b, 3	; 11
    1fb8:	08 95       	ret

00001fba <_ZN7Outputs2PD2_36SetLowEv>:

}
void Outputs::PD::_3::SetLow(){
	PORTD= PORTD&0xF7;
    1fba:	5b 98       	cbi	0x0b, 3	; 11
    1fbc:	08 95       	ret

00001fbe <_ZN4RGBC8ToStringEv>:


 #include "RGBC.h"
 #include<avr/pgmspace.h>
 #include<stdio.h>
	Cleanup<char*> RGBC::ToString(){
    1fbe:	af 92       	push	r10
    1fc0:	bf 92       	push	r11
    1fc2:	cf 92       	push	r12
    1fc4:	df 92       	push	r13
    1fc6:	ef 92       	push	r14
    1fc8:	ff 92       	push	r15
    1fca:	0f 93       	push	r16
    1fcc:	1f 93       	push	r17
    1fce:	cf 93       	push	r28
    1fd0:	df 93       	push	r29
    1fd2:	8c 01       	movw	r16, r24
    1fd4:	eb 01       	movw	r28, r22
		const char* pstr = PSTR("{\"type\":\"rgbc\",\"r\":%d,\"g\":%d,\"b\":%d,\"c\":%d}\n");
		int length = snprintf_P(NULL, 0, pstr, r, g, b, c);
    1fd6:	8f 81       	ldd	r24, Y+7	; 0x07
    1fd8:	8f 93       	push	r24
    1fda:	8e 81       	ldd	r24, Y+6	; 0x06
    1fdc:	8f 93       	push	r24
    1fde:	8d 81       	ldd	r24, Y+5	; 0x05
    1fe0:	8f 93       	push	r24
    1fe2:	8c 81       	ldd	r24, Y+4	; 0x04
    1fe4:	8f 93       	push	r24
    1fe6:	8b 81       	ldd	r24, Y+3	; 0x03
    1fe8:	8f 93       	push	r24
    1fea:	8a 81       	ldd	r24, Y+2	; 0x02
    1fec:	8f 93       	push	r24
    1fee:	89 81       	ldd	r24, Y+1	; 0x01
    1ff0:	8f 93       	push	r24
    1ff2:	88 81       	ld	r24, Y
    1ff4:	8f 93       	push	r24
    1ff6:	0f 2e       	mov	r0, r31
    1ff8:	f8 e7       	ldi	r31, 0x78	; 120
    1ffa:	ef 2e       	mov	r14, r31
    1ffc:	f1 e0       	ldi	r31, 0x01	; 1
    1ffe:	ff 2e       	mov	r15, r31
    2000:	f0 2d       	mov	r31, r0
    2002:	ff 92       	push	r15
    2004:	ef 92       	push	r14
    2006:	1f 92       	push	r1
    2008:	1f 92       	push	r1
    200a:	1f 92       	push	r1
    200c:	1f 92       	push	r1
    200e:	0e 94 60 19 	call	0x32c0	; 0x32c0 <snprintf_P>
		char* buf = (char*)malloc(length+1);
    2012:	01 96       	adiw	r24, 0x01	; 1
    2014:	6c 01       	movw	r12, r24
    2016:	0e 94 14 18 	call	0x3028	; 0x3028 <malloc>
    201a:	a8 2e       	mov	r10, r24
    201c:	b9 2e       	mov	r11, r25
		snprintf_P(buf, length + 1,pstr,r, g, b, c);
    201e:	8f 81       	ldd	r24, Y+7	; 0x07
    2020:	8f 93       	push	r24
    2022:	8e 81       	ldd	r24, Y+6	; 0x06
    2024:	8f 93       	push	r24
    2026:	8d 81       	ldd	r24, Y+5	; 0x05
    2028:	8f 93       	push	r24
    202a:	8c 81       	ldd	r24, Y+4	; 0x04
    202c:	8f 93       	push	r24
    202e:	8b 81       	ldd	r24, Y+3	; 0x03
    2030:	8f 93       	push	r24
    2032:	8a 81       	ldd	r24, Y+2	; 0x02
    2034:	8f 93       	push	r24
    2036:	89 81       	ldd	r24, Y+1	; 0x01
    2038:	8f 93       	push	r24
    203a:	88 81       	ld	r24, Y
    203c:	8f 93       	push	r24
    203e:	ff 92       	push	r15
    2040:	ef 92       	push	r14
    2042:	df 92       	push	r13
    2044:	cf 92       	push	r12
    2046:	9f 93       	push	r25
    2048:	af 92       	push	r10
    204a:	0e 94 60 19 	call	0x32c0	; 0x32c0 <snprintf_P>
    204e:	f8 01       	movw	r30, r16
    2050:	a0 82       	st	Z, r10
    2052:	b1 82       	std	Z+1, r11	; 0x01
    2054:	12 82       	std	Z+2, r1	; 0x02
		return Cleanup<char*>(buf);
    2056:	8d b7       	in	r24, 0x3d	; 61
    2058:	9e b7       	in	r25, 0x3e	; 62
    205a:	4c 96       	adiw	r24, 0x1c	; 28
    205c:	0f b6       	in	r0, 0x3f	; 63
    205e:	f8 94       	cli
    2060:	9e bf       	out	0x3e, r25	; 62
    2062:	0f be       	out	0x3f, r0	; 63
    2064:	8d bf       	out	0x3d, r24	; 61
    2066:	c8 01       	movw	r24, r16
    2068:	df 91       	pop	r29
    206a:	cf 91       	pop	r28
    206c:	1f 91       	pop	r17
    206e:	0f 91       	pop	r16
    2070:	ff 90       	pop	r15
    2072:	ef 90       	pop	r14
    2074:	df 90       	pop	r13
    2076:	cf 90       	pop	r12
    2078:	bf 90       	pop	r11
    207a:	af 90       	pop	r10
    207c:	08 95       	ret

0000207e <_ZN6Sender8SendRGBCE4RGBC>:


Sender::Sender(ISendMessage* iSendMessage):iSendMessage(iSendMessage){
	
}
void Sender::SendRGBC(RGBC rgbc){
    207e:	ef 92       	push	r14
    2080:	ff 92       	push	r15
    2082:	0f 93       	push	r16
    2084:	1f 93       	push	r17
    2086:	cf 93       	push	r28
    2088:	df 93       	push	r29
    208a:	cd b7       	in	r28, 0x3d	; 61
    208c:	de b7       	in	r29, 0x3e	; 62
    208e:	2b 97       	sbiw	r28, 0x0b	; 11
    2090:	0f b6       	in	r0, 0x3f	; 63
    2092:	f8 94       	cli
    2094:	de bf       	out	0x3e, r29	; 62
    2096:	0f be       	out	0x3f, r0	; 63
    2098:	cd bf       	out	0x3d, r28	; 61
    209a:	7c 01       	movw	r14, r24
    209c:	0c 83       	std	Y+4, r16	; 0x04
    209e:	1d 83       	std	Y+5, r17	; 0x05
    20a0:	2e 83       	std	Y+6, r18	; 0x06
    20a2:	3f 83       	std	Y+7, r19	; 0x07
    20a4:	48 87       	std	Y+8, r20	; 0x08
    20a6:	59 87       	std	Y+9, r21	; 0x09
    20a8:	6a 87       	std	Y+10, r22	; 0x0a
    20aa:	7b 87       	std	Y+11, r23	; 0x0b
	Cleanup<char*> s = rgbc.ToString();
    20ac:	be 01       	movw	r22, r28
    20ae:	6c 5f       	subi	r22, 0xFC	; 252
    20b0:	7f 4f       	sbci	r23, 0xFF	; 255
    20b2:	ce 01       	movw	r24, r28
    20b4:	01 96       	adiw	r24, 0x01	; 1
    20b6:	0e 94 df 0f 	call	0x1fbe	; 0x1fbe <_ZN4RGBC8ToStringEv>
	iSendMessage->SendMessage(s.payload, strlen(s.payload));
    20ba:	d7 01       	movw	r26, r14
    20bc:	12 96       	adiw	r26, 0x02	; 2
    20be:	8d 91       	ld	r24, X+
    20c0:	9c 91       	ld	r25, X
    20c2:	13 97       	sbiw	r26, 0x03	; 3
    20c4:	69 81       	ldd	r22, Y+1	; 0x01
    20c6:	7a 81       	ldd	r23, Y+2	; 0x02
    20c8:	fb 01       	movw	r30, r22
    20ca:	01 90       	ld	r0, Z+
    20cc:	00 20       	and	r0, r0
    20ce:	e9 f7       	brne	.-6      	; 0x20ca <_ZN6Sender8SendRGBCE4RGBC+0x4c>
    20d0:	31 97       	sbiw	r30, 0x01	; 1
    20d2:	af 01       	movw	r20, r30
    20d4:	46 1b       	sub	r20, r22
    20d6:	57 0b       	sbc	r21, r23
    20d8:	dc 01       	movw	r26, r24
    20da:	ed 91       	ld	r30, X+
    20dc:	fc 91       	ld	r31, X
    20de:	01 90       	ld	r0, Z+
    20e0:	f0 81       	ld	r31, Z
    20e2:	e0 2d       	mov	r30, r0
    20e4:	09 95       	icall

	// default destructor

	~Cleanup()
	{
		if(!dontDelete)
    20e6:	8b 81       	ldd	r24, Y+3	; 0x03
    20e8:	81 11       	cpse	r24, r1
    20ea:	06 c0       	rjmp	.+12     	; 0x20f8 <_ZN6Sender8SendRGBCE4RGBC+0x7a>
		if(payload!=NULL)
    20ec:	89 81       	ldd	r24, Y+1	; 0x01
    20ee:	9a 81       	ldd	r25, Y+2	; 0x02
    20f0:	00 97       	sbiw	r24, 0x00	; 0
    20f2:	11 f0       	breq	.+4      	; 0x20f8 <_ZN6Sender8SendRGBCE4RGBC+0x7a>
		delete payload;
    20f4:	0e 94 84 08 	call	0x1108	; 0x1108 <_ZdlPv>
    20f8:	2b 96       	adiw	r28, 0x0b	; 11
    20fa:	0f b6       	in	r0, 0x3f	; 63
    20fc:	f8 94       	cli
    20fe:	de bf       	out	0x3e, r29	; 62
    2100:	0f be       	out	0x3f, r0	; 63
    2102:	cd bf       	out	0x3d, r28	; 61
    2104:	df 91       	pop	r29
    2106:	cf 91       	pop	r28
    2108:	1f 91       	pop	r17
    210a:	0f 91       	pop	r16
    210c:	ff 90       	pop	r15
    210e:	ef 90       	pop	r14
    2110:	08 95       	ret

00002112 <_ZN6SenderC1EP12ISendMessage>:
#include "Sender.h"
#include <string.h>



Sender::Sender(ISendMessage* iSendMessage):iSendMessage(iSendMessage){
    2112:	2c e9       	ldi	r18, 0x9C	; 156
    2114:	31 e0       	ldi	r19, 0x01	; 1
    2116:	fc 01       	movw	r30, r24
    2118:	31 83       	std	Z+1, r19	; 0x01
    211a:	20 83       	st	Z, r18
    211c:	73 83       	std	Z+3, r23	; 0x03
    211e:	62 83       	std	Z+2, r22	; 0x02
    2120:	08 95       	ret

00002122 <_ZN18SubscriptionRunner9SubscribeEP21ISubscriptionRunnable>:
		d_data = (Data *)malloc (d_capacity*sizeof(Data));
		memcpy(d_data, other.d_data, d_size*sizeof(Data));
	}; // Copy constuctor

	~simple_vector() {
		free(d_data);
    2122:	af 92       	push	r10
    2124:	bf 92       	push	r11
    2126:	cf 92       	push	r12
    2128:	df 92       	push	r13
    212a:	ef 92       	push	r14
    212c:	ff 92       	push	r15
    212e:	0f 93       	push	r16
    2130:	1f 93       	push	r17
    2132:	cf 93       	push	r28
    2134:	df 93       	push	r29
    2136:	8c 01       	movw	r16, r24
    2138:	eb 01       	movw	r28, r22
    213a:	dc 01       	movw	r26, r24
    213c:	12 96       	adiw	r26, 0x02	; 2
    213e:	6d 91       	ld	r22, X+
    2140:	7c 91       	ld	r23, X
    2142:	13 97       	sbiw	r26, 0x03	; 3
    2144:	61 15       	cp	r22, r1
    2146:	71 05       	cpc	r23, r1
    2148:	09 f4       	brne	.+2      	; 0x214c <_ZN18SubscriptionRunner9SubscribeEP21ISubscriptionRunnable+0x2a>
    214a:	52 c0       	rjmp	.+164    	; 0x21f0 <_ZN18SubscriptionRunner9SubscribeEP21ISubscriptionRunnable+0xce>
    214c:	16 96       	adiw	r26, 0x06	; 6
    214e:	ed 91       	ld	r30, X+
    2150:	fc 91       	ld	r31, X
    2152:	17 97       	sbiw	r26, 0x07	; 7
    2154:	80 81       	ld	r24, Z
    2156:	91 81       	ldd	r25, Z+1	; 0x01
    2158:	8c 17       	cp	r24, r28
    215a:	9d 07       	cpc	r25, r29
    215c:	09 f4       	brne	.+2      	; 0x2160 <_ZN18SubscriptionRunner9SubscribeEP21ISubscriptionRunnable+0x3e>
    215e:	58 c0       	rjmp	.+176    	; 0x2210 <_ZN18SubscriptionRunner9SubscribeEP21ISubscriptionRunnable+0xee>
    2160:	32 96       	adiw	r30, 0x02	; 2
    2162:	80 e0       	ldi	r24, 0x00	; 0
    2164:	90 e0       	ldi	r25, 0x00	; 0
    2166:	06 c0       	rjmp	.+12     	; 0x2174 <_ZN18SubscriptionRunner9SubscribeEP21ISubscriptionRunnable+0x52>
    2168:	21 91       	ld	r18, Z+
    216a:	31 91       	ld	r19, Z+
    216c:	2c 17       	cp	r18, r28
    216e:	3d 07       	cpc	r19, r29
    2170:	09 f4       	brne	.+2      	; 0x2174 <_ZN18SubscriptionRunner9SubscribeEP21ISubscriptionRunnable+0x52>
    2172:	4e c0       	rjmp	.+156    	; 0x2210 <_ZN18SubscriptionRunner9SubscribeEP21ISubscriptionRunnable+0xee>
    2174:	01 96       	adiw	r24, 0x01	; 1
    2176:	86 17       	cp	r24, r22
    2178:	97 07       	cpc	r25, r23
    217a:	b1 f7       	brne	.-20     	; 0x2168 <_ZN18SubscriptionRunner9SubscribeEP21ISubscriptionRunnable+0x46>
    217c:	40 c0       	rjmp	.+128    	; 0x21fe <_ZN18SubscriptionRunner9SubscribeEP21ISubscriptionRunnable+0xdc>
    217e:	e1 14       	cp	r14, r1
    2180:	f1 04       	cpc	r15, r1
    2182:	21 f0       	breq	.+8      	; 0x218c <_ZN18SubscriptionRunner9SubscribeEP21ISubscriptionRunnable+0x6a>
    2184:	c7 01       	movw	r24, r14
    2186:	88 0f       	add	r24, r24
    2188:	99 1f       	adc	r25, r25
    218a:	02 c0       	rjmp	.+4      	; 0x2190 <_ZN18SubscriptionRunner9SubscribeEP21ISubscriptionRunnable+0x6e>
    218c:	81 e0       	ldi	r24, 0x01	; 1
    218e:	90 e0       	ldi	r25, 0x00	; 0
    2190:	f8 01       	movw	r30, r16
    2192:	95 83       	std	Z+5, r25	; 0x05
    2194:	84 83       	std	Z+4, r24	; 0x04
    2196:	88 0f       	add	r24, r24
    2198:	99 1f       	adc	r25, r25
    219a:	0e 94 14 18 	call	0x3028	; 0x3028 <malloc>
    219e:	6c 01       	movw	r12, r24
    21a0:	d8 01       	movw	r26, r16
    21a2:	16 96       	adiw	r26, 0x06	; 6
    21a4:	ad 90       	ld	r10, X+
    21a6:	bc 90       	ld	r11, X
    21a8:	17 97       	sbiw	r26, 0x07	; 7
    21aa:	a7 01       	movw	r20, r14
    21ac:	44 0f       	add	r20, r20
    21ae:	55 1f       	adc	r21, r21
    21b0:	b5 01       	movw	r22, r10
    21b2:	0e 94 4e 19 	call	0x329c	; 0x329c <memcpy>
    21b6:	c5 01       	movw	r24, r10
    21b8:	0e 94 ac 18 	call	0x3158	; 0x3158 <free>
    21bc:	f8 01       	movw	r30, r16
    21be:	d7 82       	std	Z+7, r13	; 0x07
    21c0:	c6 82       	std	Z+6, r12	; 0x06
    21c2:	d8 01       	movw	r26, r16
    21c4:	16 96       	adiw	r26, 0x06	; 6
    21c6:	ed 91       	ld	r30, X+
    21c8:	fc 91       	ld	r31, X
    21ca:	17 97       	sbiw	r26, 0x07	; 7
    21cc:	12 96       	adiw	r26, 0x02	; 2
    21ce:	8d 91       	ld	r24, X+
    21d0:	9c 91       	ld	r25, X
    21d2:	13 97       	sbiw	r26, 0x03	; 3
    21d4:	9c 01       	movw	r18, r24
    21d6:	2f 5f       	subi	r18, 0xFF	; 255
    21d8:	3f 4f       	sbci	r19, 0xFF	; 255
    21da:	13 96       	adiw	r26, 0x03	; 3
    21dc:	3c 93       	st	X, r19
    21de:	2e 93       	st	-X, r18
    21e0:	12 97       	sbiw	r26, 0x02	; 2
    21e2:	88 0f       	add	r24, r24
    21e4:	99 1f       	adc	r25, r25
    21e6:	e8 0f       	add	r30, r24
    21e8:	f9 1f       	adc	r31, r25
    21ea:	d1 83       	std	Z+1, r29	; 0x01
    21ec:	c0 83       	st	Z, r28
    21ee:	10 c0       	rjmp	.+32     	; 0x2210 <_ZN18SubscriptionRunner9SubscribeEP21ISubscriptionRunnable+0xee>
    21f0:	fc 01       	movw	r30, r24
    21f2:	e4 80       	ldd	r14, Z+4	; 0x04
    21f4:	f5 80       	ldd	r15, Z+5	; 0x05
    21f6:	e1 14       	cp	r14, r1
    21f8:	f1 04       	cpc	r15, r1
    21fa:	09 f2       	breq	.-126    	; 0x217e <_ZN18SubscriptionRunner9SubscribeEP21ISubscriptionRunnable+0x5c>
    21fc:	e2 cf       	rjmp	.-60     	; 0x21c2 <_ZN18SubscriptionRunner9SubscribeEP21ISubscriptionRunnable+0xa0>
    21fe:	d8 01       	movw	r26, r16
    2200:	14 96       	adiw	r26, 0x04	; 4
    2202:	ed 90       	ld	r14, X+
    2204:	fc 90       	ld	r15, X
    2206:	15 97       	sbiw	r26, 0x05	; 5
    2208:	e6 16       	cp	r14, r22
    220a:	f7 06       	cpc	r15, r23
    220c:	d1 f6       	brne	.-76     	; 0x21c2 <_ZN18SubscriptionRunner9SubscribeEP21ISubscriptionRunnable+0xa0>
    220e:	ba cf       	rjmp	.-140    	; 0x2184 <_ZN18SubscriptionRunner9SubscribeEP21ISubscriptionRunnable+0x62>
    2210:	df 91       	pop	r29
    2212:	cf 91       	pop	r28
    2214:	1f 91       	pop	r17
    2216:	0f 91       	pop	r16
    2218:	ff 90       	pop	r15
    221a:	ef 90       	pop	r14
    221c:	df 90       	pop	r13
    221e:	cf 90       	pop	r12
    2220:	bf 90       	pop	r11
    2222:	af 90       	pop	r10
    2224:	08 95       	ret

00002226 <_ZN18SubscriptionRunner11UnsubscribeEP21ISubscriptionRunnable>:
    2226:	dc 01       	movw	r26, r24
    2228:	12 96       	adiw	r26, 0x02	; 2
    222a:	4d 91       	ld	r20, X+
    222c:	5c 91       	ld	r21, X
    222e:	13 97       	sbiw	r26, 0x03	; 3
    2230:	41 15       	cp	r20, r1
    2232:	51 05       	cpc	r21, r1
    2234:	d1 f0       	breq	.+52     	; 0x226a <_ZN18SubscriptionRunner11UnsubscribeEP21ISubscriptionRunnable+0x44>
    2236:	16 96       	adiw	r26, 0x06	; 6
    2238:	ed 91       	ld	r30, X+
    223a:	fc 91       	ld	r31, X
    223c:	17 97       	sbiw	r26, 0x07	; 7
    223e:	80 81       	ld	r24, Z
    2240:	91 81       	ldd	r25, Z+1	; 0x01
    2242:	68 17       	cp	r22, r24
    2244:	79 07       	cpc	r23, r25
    2246:	a1 f0       	breq	.+40     	; 0x2270 <_ZN18SubscriptionRunner11UnsubscribeEP21ISubscriptionRunnable+0x4a>
    2248:	32 96       	adiw	r30, 0x02	; 2
    224a:	20 e0       	ldi	r18, 0x00	; 0
    224c:	30 e0       	ldi	r19, 0x00	; 0
    224e:	05 c0       	rjmp	.+10     	; 0x225a <_ZN18SubscriptionRunner11UnsubscribeEP21ISubscriptionRunnable+0x34>
    2250:	81 91       	ld	r24, Z+
    2252:	91 91       	ld	r25, Z+
    2254:	86 17       	cp	r24, r22
    2256:	97 07       	cpc	r25, r23
    2258:	69 f0       	breq	.+26     	; 0x2274 <_ZN18SubscriptionRunner11UnsubscribeEP21ISubscriptionRunnable+0x4e>
    225a:	2f 5f       	subi	r18, 0xFF	; 255
    225c:	3f 4f       	sbci	r19, 0xFF	; 255
    225e:	42 17       	cp	r20, r18
    2260:	53 07       	cpc	r21, r19
    2262:	b1 f7       	brne	.-20     	; 0x2250 <_ZN18SubscriptionRunner11UnsubscribeEP21ISubscriptionRunnable+0x2a>
    2264:	2f ef       	ldi	r18, 0xFF	; 255
    2266:	3f ef       	ldi	r19, 0xFF	; 255
    2268:	05 c0       	rjmp	.+10     	; 0x2274 <_ZN18SubscriptionRunner11UnsubscribeEP21ISubscriptionRunnable+0x4e>
    226a:	2f ef       	ldi	r18, 0xFF	; 255
    226c:	3f ef       	ldi	r19, 0xFF	; 255
    226e:	02 c0       	rjmp	.+4      	; 0x2274 <_ZN18SubscriptionRunner11UnsubscribeEP21ISubscriptionRunnable+0x4e>
    2270:	20 e0       	ldi	r18, 0x00	; 0
    2272:	30 e0       	ldi	r19, 0x00	; 0
    2274:	41 50       	subi	r20, 0x01	; 1
    2276:	51 09       	sbc	r21, r1
    2278:	13 96       	adiw	r26, 0x03	; 3
    227a:	5c 93       	st	X, r21
    227c:	4e 93       	st	-X, r20
    227e:	12 97       	sbiw	r26, 0x02	; 2
    2280:	2f 5f       	subi	r18, 0xFF	; 255
    2282:	3f 4f       	sbci	r19, 0xFF	; 255
    2284:	22 0f       	add	r18, r18
    2286:	33 1f       	adc	r19, r19
    2288:	16 96       	adiw	r26, 0x06	; 6
    228a:	8d 91       	ld	r24, X+
    228c:	9c 91       	ld	r25, X
    228e:	17 97       	sbiw	r26, 0x07	; 7
    2290:	44 0f       	add	r20, r20
    2292:	55 1f       	adc	r21, r21
    2294:	42 1b       	sub	r20, r18
    2296:	53 0b       	sbc	r21, r19
    2298:	22 0f       	add	r18, r18
    229a:	33 1f       	adc	r19, r19
    229c:	fc 01       	movw	r30, r24
    229e:	e2 0f       	add	r30, r18
    22a0:	f3 1f       	adc	r31, r19
    22a2:	60 81       	ld	r22, Z
    22a4:	71 81       	ldd	r23, Z+1	; 0x01
    22a6:	0e 94 4e 19 	call	0x329c	; 0x329c <memcpy>
    22aa:	08 95       	ret

000022ac <_ZN18SubscriptionRunnerC1Ev>:
    22ac:	fc 01       	movw	r30, r24
    22ae:	82 ea       	ldi	r24, 0xA2	; 162
    22b0:	91 e0       	ldi	r25, 0x01	; 1
    22b2:	91 83       	std	Z+1, r25	; 0x01
    22b4:	80 83       	st	Z, r24
    22b6:	13 82       	std	Z+3, r1	; 0x03
    22b8:	12 82       	std	Z+2, r1	; 0x02
    22ba:	15 82       	std	Z+5, r1	; 0x05
    22bc:	14 82       	std	Z+4, r1	; 0x04
    22be:	17 82       	std	Z+7, r1	; 0x07
    22c0:	16 82       	std	Z+6, r1	; 0x06
    22c2:	08 95       	ret

000022c4 <_ZN18SubscriptionRunner3RunEv>:
void SubscriptionRunner::Unsubscribe(ISubscriptionRunnable* iSubscriptionRunnable)
{
	list.erase(iSubscriptionRunnable);
}
void SubscriptionRunner::Run()
{
    22c4:	0f 93       	push	r16
    22c6:	1f 93       	push	r17
    22c8:	cf 93       	push	r28
    22ca:	df 93       	push	r29
	for(int i=0; i<list.size(); i++){list[i]->Run();}
    22cc:	dc 01       	movw	r26, r24
    22ce:	12 96       	adiw	r26, 0x02	; 2
    22d0:	2d 91       	ld	r18, X+
    22d2:	3c 91       	ld	r19, X
    22d4:	13 97       	sbiw	r26, 0x03	; 3
    22d6:	23 2b       	or	r18, r19
    22d8:	e9 f0       	breq	.+58     	; 0x2314 <_ZN18SubscriptionRunner3RunEv+0x50>
    22da:	8c 01       	movw	r16, r24
    22dc:	c0 e0       	ldi	r28, 0x00	; 0
    22de:	d0 e0       	ldi	r29, 0x00	; 0
    22e0:	9e 01       	movw	r18, r28
    22e2:	22 0f       	add	r18, r18
    22e4:	33 1f       	adc	r19, r19
    22e6:	d8 01       	movw	r26, r16
    22e8:	16 96       	adiw	r26, 0x06	; 6
    22ea:	ed 91       	ld	r30, X+
    22ec:	fc 91       	ld	r31, X
    22ee:	17 97       	sbiw	r26, 0x07	; 7
    22f0:	e2 0f       	add	r30, r18
    22f2:	f3 1f       	adc	r31, r19
    22f4:	80 81       	ld	r24, Z
    22f6:	91 81       	ldd	r25, Z+1	; 0x01
    22f8:	dc 01       	movw	r26, r24
    22fa:	ed 91       	ld	r30, X+
    22fc:	fc 91       	ld	r31, X
    22fe:	01 90       	ld	r0, Z+
    2300:	f0 81       	ld	r31, Z
    2302:	e0 2d       	mov	r30, r0
    2304:	09 95       	icall
    2306:	21 96       	adiw	r28, 0x01	; 1
    2308:	f8 01       	movw	r30, r16
    230a:	82 81       	ldd	r24, Z+2	; 0x02
    230c:	93 81       	ldd	r25, Z+3	; 0x03
    230e:	c8 17       	cp	r28, r24
    2310:	d9 07       	cpc	r29, r25
    2312:	30 f3       	brcs	.-52     	; 0x22e0 <_ZN18SubscriptionRunner3RunEv+0x1c>
    2314:	df 91       	pop	r29
    2316:	cf 91       	pop	r28
    2318:	1f 91       	pop	r17
    231a:	0f 91       	pop	r16
    231c:	08 95       	ret

0000231e <_ZN11SystemCheck5CheckERbR10Exceptions>:
	return _Singleton;
}
void SystemCheck::Initialize(){

}
void SystemCheck::SetInterfaces(){
    231e:	08 95       	ret

00002320 <_ZN11SystemCheck11GetInstanceEv>:
    2320:	80 91 fa 03 	lds	r24, 0x03FA	; 0x8003fa <_ZZN11SystemCheck11GetInstanceEvE11initialized>
    2324:	81 11       	cpse	r24, r1
    2326:	03 c0       	rjmp	.+6      	; 0x232e <_ZN11SystemCheck11GetInstanceEv+0xe>
    2328:	81 e0       	ldi	r24, 0x01	; 1
    232a:	80 93 fa 03 	sts	0x03FA, r24	; 0x8003fa <_ZZN11SystemCheck11GetInstanceEvE11initialized>
    232e:	8b ef       	ldi	r24, 0xFB	; 251
    2330:	93 e0       	ldi	r25, 0x03	; 3
    2332:	08 95       	ret

00002334 <_GLOBAL__sub_I__ZN11SystemCheck10_SingletonE>:
#ifndef __SYSTEMCHECK_H__
#define __SYSTEMCHECK_H__

#include "ISystemCheck.h"
#include  "Exceptions.h"	
class SystemCheck:public ISystemCheck
    2334:	8a ea       	ldi	r24, 0xAA	; 170
    2336:	91 e0       	ldi	r25, 0x01	; 1
    2338:	90 93 fc 03 	sts	0x03FC, r25	; 0x8003fc <_ZN11SystemCheck10_SingletonE+0x1>
    233c:	80 93 fb 03 	sts	0x03FB, r24	; 0x8003fb <_ZN11SystemCheck10_SingletonE>
    2340:	08 95       	ret

00002342 <_ZN8TCS3472513WriteRegisterERbhh>:
		successful=false;
	}
}
unsigned char TCS34725::ReadConfigurationRegister(bool& successful){
	return ReadRegister(successful, CONFIG_ADDRESS);
}
    2342:	0f 93       	push	r16
    2344:	1f 93       	push	r17
    2346:	cf 93       	push	r28
    2348:	df 93       	push	r29
    234a:	8b 01       	movw	r16, r22
    234c:	c4 2f       	mov	r28, r20
    234e:	d2 2f       	mov	r29, r18
    2350:	fc 01       	movw	r30, r24
    2352:	82 81       	ldd	r24, Z+2	; 0x02
    2354:	0e 94 ff 01 	call	0x3fe	; 0x3fe <i2c_start_wait>
    2358:	8c 2f       	mov	r24, r28
    235a:	80 68       	ori	r24, 0x80	; 128
    235c:	0e 94 11 02 	call	0x422	; 0x422 <i2c_write>
    2360:	88 23       	and	r24, r24
    2362:	29 f0       	breq	.+10     	; 0x236e <_ZN8TCS3472513WriteRegisterERbhh+0x2c>
    2364:	f8 01       	movw	r30, r16
    2366:	10 82       	st	Z, r1
    2368:	0e 94 09 02 	call	0x412	; 0x412 <i2c_stop>
    236c:	0a c0       	rjmp	.+20     	; 0x2382 <_ZN8TCS3472513WriteRegisterERbhh+0x40>
    236e:	8d 2f       	mov	r24, r29
    2370:	0e 94 11 02 	call	0x422	; 0x422 <i2c_write>
    2374:	c8 2f       	mov	r28, r24
    2376:	0e 94 09 02 	call	0x412	; 0x412 <i2c_stop>
    237a:	cc 23       	and	r28, r28
    237c:	11 f0       	breq	.+4      	; 0x2382 <_ZN8TCS3472513WriteRegisterERbhh+0x40>
    237e:	f8 01       	movw	r30, r16
    2380:	10 82       	st	Z, r1
    2382:	df 91       	pop	r29
    2384:	cf 91       	pop	r28
    2386:	1f 91       	pop	r17
    2388:	0f 91       	pop	r16
    238a:	08 95       	ret

0000238c <_ZN8TCS3472523WriteRGBCTimingRegisterERbh>:
    238c:	24 2f       	mov	r18, r20
    238e:	fc 01       	movw	r30, r24
    2390:	45 81       	ldd	r20, Z+5	; 0x05
    2392:	0e 94 a1 11 	call	0x2342	; 0x2342 <_ZN8TCS3472513WriteRegisterERbhh>
    2396:	08 95       	ret

00002398 <_ZN8TCS3472521WriteWaitTimeRegisterERbh>:
    2398:	24 2f       	mov	r18, r20
    239a:	fc 01       	movw	r30, r24
    239c:	46 81       	ldd	r20, Z+6	; 0x06
    239e:	0e 94 a1 11 	call	0x2342	; 0x2342 <_ZN8TCS3472513WriteRegisterERbhh>
    23a2:	08 95       	ret

000023a4 <_ZN8TCS3472524WritePersistenceRegisterERbh>:
    23a4:	24 2f       	mov	r18, r20
    23a6:	40 31       	cpi	r20, 0x10	; 16
    23a8:	08 f0       	brcs	.+2      	; 0x23ac <_ZN8TCS3472524WritePersistenceRegisterERbh+0x8>
    23aa:	2f e0       	ldi	r18, 0x0F	; 15
    23ac:	fc 01       	movw	r30, r24
    23ae:	43 85       	ldd	r20, Z+11	; 0x0b
    23b0:	0e 94 a1 11 	call	0x2342	; 0x2342 <_ZN8TCS3472513WriteRegisterERbhh>
    23b4:	08 95       	ret

000023b6 <_ZN8TCS3472526WriteConfigurationRegisterERbb>:
    23b6:	41 11       	cpse	r20, r1
    23b8:	02 c0       	rjmp	.+4      	; 0x23be <_ZN8TCS3472526WriteConfigurationRegisterERbb+0x8>
    23ba:	20 e0       	ldi	r18, 0x00	; 0
    23bc:	01 c0       	rjmp	.+2      	; 0x23c0 <_ZN8TCS3472526WriteConfigurationRegisterERbb+0xa>
    23be:	22 e0       	ldi	r18, 0x02	; 2
    23c0:	fc 01       	movw	r30, r24
    23c2:	44 85       	ldd	r20, Z+12	; 0x0c
    23c4:	0e 94 a1 11 	call	0x2342	; 0x2342 <_ZN8TCS3472513WriteRegisterERbhh>
    23c8:	08 95       	ret

000023ca <_ZN8TCS3472520WriteControlRegisterERbh>:
    23ca:	24 2f       	mov	r18, r20
    23cc:	44 30       	cpi	r20, 0x04	; 4
    23ce:	08 f0       	brcs	.+2      	; 0x23d2 <_ZN8TCS3472520WriteControlRegisterERbh+0x8>
    23d0:	23 e0       	ldi	r18, 0x03	; 3
    23d2:	fc 01       	movw	r30, r24
    23d4:	45 85       	ldd	r20, Z+13	; 0x0d
    23d6:	0e 94 a1 11 	call	0x2342	; 0x2342 <_ZN8TCS3472513WriteRegisterERbhh>
    23da:	08 95       	ret

000023dc <_ZN8TCS3472521ReadRegisterIncrementERbhRh>:
	//i2c_start_wait(ADDRESS_READ);
	successful=false;
	i2c_stop();
	return 0;
}
unsigned char* TCS34725::ReadRegisterIncrement(bool& successful, unsigned char address, unsigned char& nBytes){
    23dc:	af 92       	push	r10
    23de:	bf 92       	push	r11
    23e0:	cf 92       	push	r12
    23e2:	df 92       	push	r13
    23e4:	ef 92       	push	r14
    23e6:	ff 92       	push	r15
    23e8:	0f 93       	push	r16
    23ea:	1f 93       	push	r17
    23ec:	cf 93       	push	r28
    23ee:	df 93       	push	r29
    23f0:	ec 01       	movw	r28, r24
    23f2:	5b 01       	movw	r10, r22
    23f4:	14 2f       	mov	r17, r20
    23f6:	69 01       	movw	r12, r18
	unsigned char command = 0xA0|address;
	i2c_start_wait(ADDRESS_WRITE);
    23f8:	8a 81       	ldd	r24, Y+2	; 0x02
    23fa:	0e 94 ff 01 	call	0x3fe	; 0x3fe <i2c_start_wait>
	unsigned char r=i2c_write(command);
    23fe:	81 2f       	mov	r24, r17
    2400:	80 6a       	ori	r24, 0xA0	; 160
    2402:	0e 94 11 02 	call	0x422	; 0x422 <i2c_write>
	if(r==0){
    2406:	81 11       	cpse	r24, r1
    2408:	22 c0       	rjmp	.+68     	; 0x244e <_ZN8TCS3472521ReadRegisterIncrementERbhRh+0x72>
		r=i2c_rep_start(ADDRESS_READ);
    240a:	8b 81       	ldd	r24, Y+3	; 0x03
    240c:	0e 94 f5 01 	call	0x3ea	; 0x3ea <i2c_rep_start>
		if(r==0){
    2410:	81 11       	cpse	r24, r1
    2412:	1d c0       	rjmp	.+58     	; 0x244e <_ZN8TCS3472521ReadRegisterIncrementERbhRh+0x72>
			unsigned char* bytes = (unsigned char*) malloc(nBytes);
    2414:	f6 01       	movw	r30, r12
    2416:	c0 81       	ld	r28, Z
    2418:	8c 2f       	mov	r24, r28
    241a:	90 e0       	ldi	r25, 0x00	; 0
    241c:	0e 94 14 18 	call	0x3028	; 0x3028 <malloc>
    2420:	7c 01       	movw	r14, r24
			if(bytes!=NULL){
    2422:	89 2b       	or	r24, r25
    2424:	a1 f0       	breq	.+40     	; 0x244e <_ZN8TCS3472521ReadRegisterIncrementERbhRh+0x72>
				for(char i=0; i<nBytes; i++)
    2426:	cc 23       	and	r28, r28
    2428:	69 f0       	breq	.+26     	; 0x2444 <_ZN8TCS3472521ReadRegisterIncrementERbhRh+0x68>
    242a:	c0 e0       	ldi	r28, 0x00	; 0
				bytes[i]=i2c_readAck();
    242c:	87 01       	movw	r16, r14
    242e:	0c 0f       	add	r16, r28
    2430:	11 1d       	adc	r17, r1
    2432:	0e 94 2f 02 	call	0x45e	; 0x45e <i2c_readAck>
    2436:	f8 01       	movw	r30, r16
    2438:	80 83       	st	Z, r24
	if(r==0){
		r=i2c_rep_start(ADDRESS_READ);
		if(r==0){
			unsigned char* bytes = (unsigned char*) malloc(nBytes);
			if(bytes!=NULL){
				for(char i=0; i<nBytes; i++)
    243a:	cf 5f       	subi	r28, 0xFF	; 255
    243c:	f6 01       	movw	r30, r12
    243e:	80 81       	ld	r24, Z
    2440:	c8 17       	cp	r28, r24
    2442:	a0 f3       	brcs	.-24     	; 0x242c <_ZN8TCS3472521ReadRegisterIncrementERbhRh+0x50>
				bytes[i]=i2c_readAck();
				i2c_stop();
    2444:	0e 94 09 02 	call	0x412	; 0x412 <i2c_stop>
				return bytes;
    2448:	8e 2d       	mov	r24, r14
    244a:	9f 2d       	mov	r25, r15
    244c:	08 c0       	rjmp	.+16     	; 0x245e <_ZN8TCS3472521ReadRegisterIncrementERbhRh+0x82>
			}
		}
	}
	successful=false;
    244e:	f5 01       	movw	r30, r10
    2450:	10 82       	st	Z, r1
	i2c_stop();
    2452:	0e 94 09 02 	call	0x412	; 0x412 <i2c_stop>
	nBytes=0;
    2456:	f6 01       	movw	r30, r12
    2458:	10 82       	st	Z, r1
	return NULL;
    245a:	80 e0       	ldi	r24, 0x00	; 0
    245c:	90 e0       	ldi	r25, 0x00	; 0
}
    245e:	df 91       	pop	r29
    2460:	cf 91       	pop	r28
    2462:	1f 91       	pop	r17
    2464:	0f 91       	pop	r16
    2466:	ff 90       	pop	r15
    2468:	ef 90       	pop	r14
    246a:	df 90       	pop	r13
    246c:	cf 90       	pop	r12
    246e:	bf 90       	pop	r11
    2470:	af 90       	pop	r10
    2472:	08 95       	ret

00002474 <_ZN8TCS3472518ConfigureIfNotDoneERbR10Exceptions>:
void TCS34725::ConfigureIfNotDone(bool& successful, Exceptions& exceptions){
    2474:	ef 92       	push	r14
    2476:	ff 92       	push	r15
    2478:	0f 93       	push	r16
    247a:	1f 93       	push	r17
    247c:	cf 93       	push	r28
    247e:	df 93       	push	r29
	if(!configured){
    2480:	fc 01       	movw	r30, r24
    2482:	22 8d       	ldd	r18, Z+26	; 0x1a
    2484:	21 11       	cpse	r18, r1
    2486:	a0 c0       	rjmp	.+320    	; 0x25c8 <_ZN8TCS3472518ConfigureIfNotDoneERbR10Exceptions+0x154>
    2488:	7a 01       	movw	r14, r20
    248a:	8b 01       	movw	r16, r22
    248c:	ec 01       	movw	r28, r24
	}
	return RGBC();
}
void TCS34725::WriteEnableRegister(bool& successful, bool aIEN, bool wEN, bool aEN, bool pON){
	char configuration = (aIEN?0x10:0x00)+(wEN?0x08:0x00)+(aEN?0x02:0x00)+(pON?0x01:0x00);
	WriteRegister(successful, ENABLE_ADDRESS, configuration);
    248e:	2b e0       	ldi	r18, 0x0B	; 11
    2490:	44 81       	ldd	r20, Z+4	; 0x04
    2492:	0e 94 a1 11 	call	0x2342	; 0x2342 <_ZN8TCS3472513WriteRegisterERbhh>
	return NULL;
}
void TCS34725::ConfigureIfNotDone(bool& successful, Exceptions& exceptions){
	if(!configured){
		WriteEnableRegister(successful, false, true, true, true);
		if(!successful)
    2496:	f8 01       	movw	r30, r16
    2498:	80 81       	ld	r24, Z
    249a:	81 11       	cpse	r24, r1
    249c:	11 c0       	rjmp	.+34     	; 0x24c0 <_ZN8TCS3472518ConfigureIfNotDoneERbR10Exceptions+0x4c>
		{
			exceptions.Add(new TCS34725Exception(name, "Setting enable register failed", TCS34725Exception::Configuration));
    249e:	89 e0       	ldi	r24, 0x09	; 9
    24a0:	90 e0       	ldi	r25, 0x00	; 0
    24a2:	0e 94 7e 08 	call	0x10fc	; 0x10fc <_Znwj>
    24a6:	8c 01       	movw	r16, r24
    24a8:	68 8d       	ldd	r22, Y+24	; 0x18
    24aa:	79 8d       	ldd	r23, Y+25	; 0x19
    24ac:	20 e0       	ldi	r18, 0x00	; 0
    24ae:	4c ea       	ldi	r20, 0xAC	; 172
    24b0:	51 e0       	ldi	r21, 0x01	; 1
    24b2:	0e 94 4e 14 	call	0x289c	; 0x289c <_ZN17TCS34725ExceptionC1EPKcPcNS_4TypeE>
    24b6:	b8 01       	movw	r22, r16
    24b8:	c7 01       	movw	r24, r14
    24ba:	0e 94 27 07 	call	0xe4e	; 0xe4e <_ZN10Exceptions3AddEP9Exception>
			return;
    24be:	84 c0       	rjmp	.+264    	; 0x25c8 <_ZN8TCS3472518ConfigureIfNotDoneERbR10Exceptions+0x154>
		}
		WriteRGBCTimingRegister(successful, aTime);
    24c0:	4b 8d       	ldd	r20, Y+27	; 0x1b
    24c2:	b8 01       	movw	r22, r16
    24c4:	ce 01       	movw	r24, r28
    24c6:	0e 94 c6 11 	call	0x238c	; 0x238c <_ZN8TCS3472523WriteRGBCTimingRegisterERbh>
		if(!successful)
    24ca:	f8 01       	movw	r30, r16
    24cc:	80 81       	ld	r24, Z
    24ce:	81 11       	cpse	r24, r1
    24d0:	11 c0       	rjmp	.+34     	; 0x24f4 <_ZN8TCS3472518ConfigureIfNotDoneERbR10Exceptions+0x80>
		{
			exceptions.Add(new TCS34725Exception(name, "Setting RGBC timing register failed", TCS34725Exception::Configuration));
    24d2:	89 e0       	ldi	r24, 0x09	; 9
    24d4:	90 e0       	ldi	r25, 0x00	; 0
    24d6:	0e 94 7e 08 	call	0x10fc	; 0x10fc <_Znwj>
    24da:	8c 01       	movw	r16, r24
    24dc:	68 8d       	ldd	r22, Y+24	; 0x18
    24de:	79 8d       	ldd	r23, Y+25	; 0x19
    24e0:	20 e0       	ldi	r18, 0x00	; 0
    24e2:	4b ec       	ldi	r20, 0xCB	; 203
    24e4:	51 e0       	ldi	r21, 0x01	; 1
    24e6:	0e 94 4e 14 	call	0x289c	; 0x289c <_ZN17TCS34725ExceptionC1EPKcPcNS_4TypeE>
    24ea:	b8 01       	movw	r22, r16
    24ec:	c7 01       	movw	r24, r14
    24ee:	0e 94 27 07 	call	0xe4e	; 0xe4e <_ZN10Exceptions3AddEP9Exception>
			return;
    24f2:	6a c0       	rjmp	.+212    	; 0x25c8 <_ZN8TCS3472518ConfigureIfNotDoneERbR10Exceptions+0x154>
		}
		WriteWaitTimeRegister(successful, wTime);
    24f4:	4c 8d       	ldd	r20, Y+28	; 0x1c
    24f6:	b8 01       	movw	r22, r16
    24f8:	ce 01       	movw	r24, r28
    24fa:	0e 94 cc 11 	call	0x2398	; 0x2398 <_ZN8TCS3472521WriteWaitTimeRegisterERbh>
		if(!successful)
    24fe:	f8 01       	movw	r30, r16
    2500:	80 81       	ld	r24, Z
    2502:	81 11       	cpse	r24, r1
    2504:	11 c0       	rjmp	.+34     	; 0x2528 <_ZN8TCS3472518ConfigureIfNotDoneERbR10Exceptions+0xb4>
		{
			exceptions.Add(new TCS34725Exception(name, "Setting wait time register failed", TCS34725Exception::Configuration));
    2506:	89 e0       	ldi	r24, 0x09	; 9
    2508:	90 e0       	ldi	r25, 0x00	; 0
    250a:	0e 94 7e 08 	call	0x10fc	; 0x10fc <_Znwj>
    250e:	8c 01       	movw	r16, r24
    2510:	68 8d       	ldd	r22, Y+24	; 0x18
    2512:	79 8d       	ldd	r23, Y+25	; 0x19
    2514:	20 e0       	ldi	r18, 0x00	; 0
    2516:	4f ee       	ldi	r20, 0xEF	; 239
    2518:	51 e0       	ldi	r21, 0x01	; 1
    251a:	0e 94 4e 14 	call	0x289c	; 0x289c <_ZN17TCS34725ExceptionC1EPKcPcNS_4TypeE>
    251e:	b8 01       	movw	r22, r16
    2520:	c7 01       	movw	r24, r14
    2522:	0e 94 27 07 	call	0xe4e	; 0xe4e <_ZN10Exceptions3AddEP9Exception>
			return;
    2526:	50 c0       	rjmp	.+160    	; 0x25c8 <_ZN8TCS3472518ConfigureIfNotDoneERbR10Exceptions+0x154>
		}
		WriteConfigurationRegister(successful, wLong);
    2528:	4d 8d       	ldd	r20, Y+29	; 0x1d
    252a:	b8 01       	movw	r22, r16
    252c:	ce 01       	movw	r24, r28
    252e:	0e 94 db 11 	call	0x23b6	; 0x23b6 <_ZN8TCS3472526WriteConfigurationRegisterERbb>
		if(!successful)
    2532:	f8 01       	movw	r30, r16
    2534:	80 81       	ld	r24, Z
    2536:	81 11       	cpse	r24, r1
    2538:	11 c0       	rjmp	.+34     	; 0x255c <_ZN8TCS3472518ConfigureIfNotDoneERbR10Exceptions+0xe8>
		{
			exceptions.Add(new TCS34725Exception(name, "Setting   wait long register failed", TCS34725Exception::Configuration));
    253a:	89 e0       	ldi	r24, 0x09	; 9
    253c:	90 e0       	ldi	r25, 0x00	; 0
    253e:	0e 94 7e 08 	call	0x10fc	; 0x10fc <_Znwj>
    2542:	8c 01       	movw	r16, r24
    2544:	68 8d       	ldd	r22, Y+24	; 0x18
    2546:	79 8d       	ldd	r23, Y+25	; 0x19
    2548:	20 e0       	ldi	r18, 0x00	; 0
    254a:	41 e1       	ldi	r20, 0x11	; 17
    254c:	52 e0       	ldi	r21, 0x02	; 2
    254e:	0e 94 4e 14 	call	0x289c	; 0x289c <_ZN17TCS34725ExceptionC1EPKcPcNS_4TypeE>
    2552:	b8 01       	movw	r22, r16
    2554:	c7 01       	movw	r24, r14
    2556:	0e 94 27 07 	call	0xe4e	; 0xe4e <_ZN10Exceptions3AddEP9Exception>
						return;
    255a:	36 c0       	rjmp	.+108    	; 0x25c8 <_ZN8TCS3472518ConfigureIfNotDoneERbR10Exceptions+0x154>
		}
		WriteControlRegister(successful, aGain);
    255c:	4f 8d       	ldd	r20, Y+31	; 0x1f
    255e:	b8 01       	movw	r22, r16
    2560:	ce 01       	movw	r24, r28
    2562:	0e 94 e5 11 	call	0x23ca	; 0x23ca <_ZN8TCS3472520WriteControlRegisterERbh>
		if(!successful)
    2566:	f8 01       	movw	r30, r16
    2568:	80 81       	ld	r24, Z
    256a:	81 11       	cpse	r24, r1
    256c:	11 c0       	rjmp	.+34     	; 0x2590 <_ZN8TCS3472518ConfigureIfNotDoneERbR10Exceptions+0x11c>
		{
			exceptions.Add(new TCS34725Exception(name, "Setting analogue gain register failed", TCS34725Exception::Configuration));
    256e:	89 e0       	ldi	r24, 0x09	; 9
    2570:	90 e0       	ldi	r25, 0x00	; 0
    2572:	0e 94 7e 08 	call	0x10fc	; 0x10fc <_Znwj>
    2576:	8c 01       	movw	r16, r24
    2578:	68 8d       	ldd	r22, Y+24	; 0x18
    257a:	79 8d       	ldd	r23, Y+25	; 0x19
    257c:	20 e0       	ldi	r18, 0x00	; 0
    257e:	45 e3       	ldi	r20, 0x35	; 53
    2580:	52 e0       	ldi	r21, 0x02	; 2
    2582:	0e 94 4e 14 	call	0x289c	; 0x289c <_ZN17TCS34725ExceptionC1EPKcPcNS_4TypeE>
    2586:	b8 01       	movw	r22, r16
    2588:	c7 01       	movw	r24, r14
    258a:	0e 94 27 07 	call	0xe4e	; 0xe4e <_ZN10Exceptions3AddEP9Exception>
						return;
    258e:	1c c0       	rjmp	.+56     	; 0x25c8 <_ZN8TCS3472518ConfigureIfNotDoneERbR10Exceptions+0x154>
		}
		WritePersistenceRegister(successful, aPers);
    2590:	4e 8d       	ldd	r20, Y+30	; 0x1e
    2592:	b8 01       	movw	r22, r16
    2594:	ce 01       	movw	r24, r28
    2596:	0e 94 d2 11 	call	0x23a4	; 0x23a4 <_ZN8TCS3472524WritePersistenceRegisterERbh>
		if(!successful)
    259a:	f8 01       	movw	r30, r16
    259c:	80 81       	ld	r24, Z
    259e:	81 11       	cpse	r24, r1
    25a0:	11 c0       	rjmp	.+34     	; 0x25c4 <_ZN8TCS3472518ConfigureIfNotDoneERbR10Exceptions+0x150>
		{
			exceptions.Add(new TCS34725Exception(name, "Setting integration persistence register failed", TCS34725Exception::Configuration));
    25a2:	89 e0       	ldi	r24, 0x09	; 9
    25a4:	90 e0       	ldi	r25, 0x00	; 0
    25a6:	0e 94 7e 08 	call	0x10fc	; 0x10fc <_Znwj>
    25aa:	8c 01       	movw	r16, r24
    25ac:	68 8d       	ldd	r22, Y+24	; 0x18
    25ae:	79 8d       	ldd	r23, Y+25	; 0x19
    25b0:	20 e0       	ldi	r18, 0x00	; 0
    25b2:	4b e5       	ldi	r20, 0x5B	; 91
    25b4:	52 e0       	ldi	r21, 0x02	; 2
    25b6:	0e 94 4e 14 	call	0x289c	; 0x289c <_ZN17TCS34725ExceptionC1EPKcPcNS_4TypeE>
    25ba:	b8 01       	movw	r22, r16
    25bc:	c7 01       	movw	r24, r14
    25be:	0e 94 27 07 	call	0xe4e	; 0xe4e <_ZN10Exceptions3AddEP9Exception>
					return;
    25c2:	02 c0       	rjmp	.+4      	; 0x25c8 <_ZN8TCS3472518ConfigureIfNotDoneERbR10Exceptions+0x154>
					}
		configured=true;
    25c4:	81 e0       	ldi	r24, 0x01	; 1
    25c6:	8a 8f       	std	Y+26, r24	; 0x1a
	}
}
    25c8:	df 91       	pop	r29
    25ca:	cf 91       	pop	r28
    25cc:	1f 91       	pop	r17
    25ce:	0f 91       	pop	r16
    25d0:	ff 90       	pop	r15
    25d2:	ef 90       	pop	r14
    25d4:	08 95       	ret

000025d6 <_ZN8TCS34725C1EPKchhbhh>:
#include "UART.h"
#include "TCS34725Exception.h"
#include "Leds.h"
#include<stdio.h>
// default constructor
TCS34725::TCS34725(const char* name, unsigned char aTime, unsigned char wTime, bool wLong, unsigned char aGain, unsigned char aPers)
    25d6:	af 92       	push	r10
    25d8:	bf 92       	push	r11
    25da:	cf 92       	push	r12
    25dc:	ef 92       	push	r14
    25de:	0f 93       	push	r16
    25e0:	1f 93       	push	r17
    25e2:	cf 93       	push	r28
    25e4:	df 93       	push	r29
    25e6:	cd b7       	in	r28, 0x3d	; 61
    25e8:	de b7       	in	r29, 0x3e	; 62
    25ea:	27 97       	sbiw	r28, 0x07	; 7
    25ec:	0f b6       	in	r0, 0x3f	; 63
    25ee:	f8 94       	cli
    25f0:	de bf       	out	0x3e, r29	; 62
    25f2:	0f be       	out	0x3f, r0	; 63
    25f4:	cd bf       	out	0x3d, r28	; 61
    25f6:	5c 01       	movw	r10, r24
:aTime(aTime), wLong(wLong), wTime(wTime), aGain(aGain), aPers(aPers), name(name)
    25f8:	83 ea       	ldi	r24, 0xA3	; 163
    25fa:	92 e0       	ldi	r25, 0x02	; 2
    25fc:	f5 01       	movw	r30, r10
    25fe:	91 83       	std	Z+1, r25	; 0x01
    2600:	80 83       	st	Z, r24
    2602:	82 e5       	ldi	r24, 0x52	; 82
    2604:	82 83       	std	Z+2, r24	; 0x02
    2606:	83 e5       	ldi	r24, 0x53	; 83
    2608:	83 83       	std	Z+3, r24	; 0x03
    260a:	14 82       	std	Z+4, r1	; 0x04
    260c:	11 e0       	ldi	r17, 0x01	; 1
    260e:	15 83       	std	Z+5, r17	; 0x05
    2610:	83 e0       	ldi	r24, 0x03	; 3
    2612:	86 83       	std	Z+6, r24	; 0x06
    2614:	84 e0       	ldi	r24, 0x04	; 4
    2616:	87 83       	std	Z+7, r24	; 0x07
    2618:	85 e0       	ldi	r24, 0x05	; 5
    261a:	80 87       	std	Z+8, r24	; 0x08
    261c:	86 e0       	ldi	r24, 0x06	; 6
    261e:	81 87       	std	Z+9, r24	; 0x09
    2620:	87 e0       	ldi	r24, 0x07	; 7
    2622:	82 87       	std	Z+10, r24	; 0x0a
    2624:	8c e0       	ldi	r24, 0x0C	; 12
    2626:	83 87       	std	Z+11, r24	; 0x0b
    2628:	8d e0       	ldi	r24, 0x0D	; 13
    262a:	84 87       	std	Z+12, r24	; 0x0c
    262c:	8f e0       	ldi	r24, 0x0F	; 15
    262e:	85 87       	std	Z+13, r24	; 0x0d
    2630:	82 e1       	ldi	r24, 0x12	; 18
    2632:	86 87       	std	Z+14, r24	; 0x0e
    2634:	83 e1       	ldi	r24, 0x13	; 19
    2636:	87 87       	std	Z+15, r24	; 0x0f
    2638:	84 e1       	ldi	r24, 0x14	; 20
    263a:	80 8b       	std	Z+16, r24	; 0x10
    263c:	85 e1       	ldi	r24, 0x15	; 21
    263e:	81 8b       	std	Z+17, r24	; 0x11
    2640:	86 e1       	ldi	r24, 0x16	; 22
    2642:	82 8b       	std	Z+18, r24	; 0x12
    2644:	87 e1       	ldi	r24, 0x17	; 23
    2646:	83 8b       	std	Z+19, r24	; 0x13
    2648:	88 e1       	ldi	r24, 0x18	; 24
    264a:	84 8b       	std	Z+20, r24	; 0x14
    264c:	89 e1       	ldi	r24, 0x19	; 25
    264e:	85 8b       	std	Z+21, r24	; 0x15
    2650:	8a e1       	ldi	r24, 0x1A	; 26
    2652:	86 8b       	std	Z+22, r24	; 0x16
    2654:	8b e1       	ldi	r24, 0x1B	; 27
    2656:	87 8b       	std	Z+23, r24	; 0x17
    2658:	71 8f       	std	Z+25, r23	; 0x19
    265a:	60 8f       	std	Z+24, r22	; 0x18
    265c:	12 8e       	std	Z+26, r1	; 0x1a
    265e:	43 8f       	std	Z+27, r20	; 0x1b
    2660:	24 8f       	std	Z+28, r18	; 0x1c
    2662:	05 8f       	std	Z+29, r16	; 0x1d
    2664:	c6 8e       	std	Z+30, r12	; 0x1e
    2666:	e7 8e       	std	Z+31, r14	; 0x1f
{
	Exceptions exceptions;
    2668:	ce 01       	movw	r24, r28
    266a:	01 96       	adiw	r24, 0x01	; 1
    266c:	0e 94 1f 07 	call	0xe3e	; 0xe3e <_ZN10ExceptionsC1Ev>
	bool successful=true;
    2670:	1f 83       	std	Y+7, r17	; 0x07
	ConfigureIfNotDone(successful, exceptions);
    2672:	ae 01       	movw	r20, r28
    2674:	4f 5f       	subi	r20, 0xFF	; 255
    2676:	5f 4f       	sbci	r21, 0xFF	; 255
    2678:	be 01       	movw	r22, r28
    267a:	69 5f       	subi	r22, 0xF9	; 249
    267c:	7f 4f       	sbci	r23, 0xFF	; 255
    267e:	c5 01       	movw	r24, r10
    2680:	0e 94 3a 12 	call	0x2474	; 0x2474 <_ZN8TCS3472518ConfigureIfNotDoneERbR10Exceptions>
#include<stdio.h>
// default constructor
TCS34725::TCS34725(const char* name, unsigned char aTime, unsigned char wTime, bool wLong, unsigned char aGain, unsigned char aPers)
:aTime(aTime), wLong(wLong), wTime(wTime), aGain(aGain), aPers(aPers), name(name)
{
	Exceptions exceptions;
    2684:	ce 01       	movw	r24, r28
    2686:	01 96       	adiw	r24, 0x01	; 1
    2688:	0e 94 75 07 	call	0xeea	; 0xeea <_ZN10ExceptionsD1Ev>
	bool successful=true;
	ConfigureIfNotDone(successful, exceptions);
}
    268c:	27 96       	adiw	r28, 0x07	; 7
    268e:	0f b6       	in	r0, 0x3f	; 63
    2690:	f8 94       	cli
    2692:	de bf       	out	0x3e, r29	; 62
    2694:	0f be       	out	0x3f, r0	; 63
    2696:	cd bf       	out	0x3d, r28	; 61
    2698:	df 91       	pop	r29
    269a:	cf 91       	pop	r28
    269c:	1f 91       	pop	r17
    269e:	0f 91       	pop	r16
    26a0:	ef 90       	pop	r14
    26a2:	cf 90       	pop	r12
    26a4:	bf 90       	pop	r11
    26a6:	af 90       	pop	r10
    26a8:	08 95       	ret

000026aa <_ZN8TCS347257GetRGBCERbR10Exceptions>:
RGBC TCS34725::GetRGBC(bool& successful, Exceptions&exceptions){
    26aa:	af 92       	push	r10
    26ac:	bf 92       	push	r11
    26ae:	cf 92       	push	r12
    26b0:	df 92       	push	r13
    26b2:	ef 92       	push	r14
    26b4:	ff 92       	push	r15
    26b6:	0f 93       	push	r16
    26b8:	1f 93       	push	r17
    26ba:	cf 93       	push	r28
    26bc:	df 93       	push	r29
    26be:	cd b7       	in	r28, 0x3d	; 61
    26c0:	de b7       	in	r29, 0x3e	; 62
    26c2:	29 97       	sbiw	r28, 0x09	; 9
    26c4:	0f b6       	in	r0, 0x3f	; 63
    26c6:	f8 94       	cli
    26c8:	de bf       	out	0x3e, r29	; 62
    26ca:	0f be       	out	0x3f, r0	; 63
    26cc:	cd bf       	out	0x3d, r28	; 61
    26ce:	7c 01       	movw	r14, r24
    26d0:	8b 01       	movw	r16, r22
    26d2:	6a 01       	movw	r12, r20
	
	ConfigureIfNotDone(successful, exceptions);
    26d4:	0e 94 3a 12 	call	0x2474	; 0x2474 <_ZN8TCS3472518ConfigureIfNotDoneERbR10Exceptions>
	if(successful){
    26d8:	d8 01       	movw	r26, r16
    26da:	8c 91       	ld	r24, X
    26dc:	88 23       	and	r24, r24
    26de:	09 f4       	brne	.+2      	; 0x26e2 <_ZN8TCS347257GetRGBCERbR10Exceptions+0x38>
    26e0:	47 c0       	rjmp	.+142    	; 0x2770 <_ZN8TCS347257GetRGBCERbR10Exceptions+0xc6>
		unsigned char nBytes=8;
    26e2:	88 e0       	ldi	r24, 0x08	; 8
    26e4:	89 87       	std	Y+9, r24	; 0x09
		unsigned char* bytes = ReadRegisterIncrement(successful, CDATAL_ADDRESS, nBytes);
    26e6:	9e 01       	movw	r18, r28
    26e8:	27 5f       	subi	r18, 0xF7	; 247
    26ea:	3f 4f       	sbci	r19, 0xFF	; 255
    26ec:	f7 01       	movw	r30, r14
    26ee:	40 89       	ldd	r20, Z+16	; 0x10
    26f0:	b8 01       	movw	r22, r16
    26f2:	c7 01       	movw	r24, r14
    26f4:	0e 94 ee 11 	call	0x23dc	; 0x23dc <_ZN8TCS3472521ReadRegisterIncrementERbhRh>
    26f8:	fc 01       	movw	r30, r24
		if(successful&&bytes != NULL){
    26fa:	d8 01       	movw	r26, r16
    26fc:	8c 91       	ld	r24, X
    26fe:	88 23       	and	r24, r24
    2700:	31 f1       	breq	.+76     	; 0x274e <_ZN8TCS347257GetRGBCERbR10Exceptions+0xa4>
    2702:	30 97       	sbiw	r30, 0x00	; 0
    2704:	21 f1       	breq	.+72     	; 0x274e <_ZN8TCS347257GetRGBCERbR10Exceptions+0xa4>
			uint16_t h=(uint16_t)bytes[1];
			uint16_t c =(h<<8)| bytes[0];
    2706:	01 81       	ldd	r16, Z+1	; 0x01
    2708:	10 e0       	ldi	r17, 0x00	; 0
    270a:	10 2f       	mov	r17, r16
    270c:	00 27       	eor	r16, r16
    270e:	80 81       	ld	r24, Z
    2710:	08 2b       	or	r16, r24
			h=(uint16_t)bytes[3];
			uint16_t r = (h<<8)| bytes[2];
    2712:	a3 80       	ldd	r10, Z+3	; 0x03
    2714:	b1 2c       	mov	r11, r1
    2716:	ba 2c       	mov	r11, r10
    2718:	aa 24       	eor	r10, r10
    271a:	82 81       	ldd	r24, Z+2	; 0x02
    271c:	a8 2a       	or	r10, r24
			h=(uint16_t)bytes[5];
			uint16_t g = (h<<8)| bytes[4];
    271e:	c5 80       	ldd	r12, Z+5	; 0x05
    2720:	d1 2c       	mov	r13, r1
    2722:	dc 2c       	mov	r13, r12
    2724:	cc 24       	eor	r12, r12
    2726:	84 81       	ldd	r24, Z+4	; 0x04
    2728:	c8 2a       	or	r12, r24
			h=(uint16_t)bytes[7];
			uint16_t b = (h<<8)| bytes[6];
    272a:	e7 80       	ldd	r14, Z+7	; 0x07
    272c:	f1 2c       	mov	r15, r1
    272e:	fe 2c       	mov	r15, r14
    2730:	ee 24       	eor	r14, r14
    2732:	86 81       	ldd	r24, Z+6	; 0x06
    2734:	e8 2a       	or	r14, r24
			free(bytes);
    2736:	cf 01       	movw	r24, r30
    2738:	0e 94 ac 18 	call	0x3158	; 0x3158 <free>
			return RGBC(r, g, b, c);
    273c:	ba 82       	std	Y+2, r11	; 0x02
    273e:	a9 82       	std	Y+1, r10	; 0x01
    2740:	dc 82       	std	Y+4, r13	; 0x04
    2742:	cb 82       	std	Y+3, r12	; 0x03
    2744:	fe 82       	std	Y+6, r15	; 0x06
    2746:	ed 82       	std	Y+5, r14	; 0x05
    2748:	18 87       	std	Y+8, r17	; 0x08
    274a:	0f 83       	std	Y+7, r16	; 0x07
    274c:	19 c0       	rjmp	.+50     	; 0x2780 <_ZN8TCS347257GetRGBCERbR10Exceptions+0xd6>
		}
		exceptions.Add(new TCS34725Exception(name, "Reading RGBC failed", TCS34725Exception::Communication));
    274e:	89 e0       	ldi	r24, 0x09	; 9
    2750:	90 e0       	ldi	r25, 0x00	; 0
    2752:	0e 94 7e 08 	call	0x10fc	; 0x10fc <_Znwj>
    2756:	8c 01       	movw	r16, r24
    2758:	f7 01       	movw	r30, r14
    275a:	60 8d       	ldd	r22, Z+24	; 0x18
    275c:	71 8d       	ldd	r23, Z+25	; 0x19
    275e:	21 e0       	ldi	r18, 0x01	; 1
    2760:	4b e8       	ldi	r20, 0x8B	; 139
    2762:	52 e0       	ldi	r21, 0x02	; 2
    2764:	0e 94 4e 14 	call	0x289c	; 0x289c <_ZN17TCS34725ExceptionC1EPKcPcNS_4TypeE>
    2768:	b8 01       	movw	r22, r16
    276a:	c6 01       	movw	r24, r12
    276c:	0e 94 27 07 	call	0xe4e	; 0xe4e <_ZN10Exceptions3AddEP9Exception>
	}
	return RGBC();
    2770:	1a 82       	std	Y+2, r1	; 0x02
    2772:	19 82       	std	Y+1, r1	; 0x01
    2774:	1c 82       	std	Y+4, r1	; 0x04
    2776:	1b 82       	std	Y+3, r1	; 0x03
    2778:	1e 82       	std	Y+6, r1	; 0x06
    277a:	1d 82       	std	Y+5, r1	; 0x05
    277c:	18 86       	std	Y+8, r1	; 0x08
    277e:	1f 82       	std	Y+7, r1	; 0x07
    2780:	29 81       	ldd	r18, Y+1	; 0x01
    2782:	3a 81       	ldd	r19, Y+2	; 0x02
    2784:	4b 81       	ldd	r20, Y+3	; 0x03
    2786:	5c 81       	ldd	r21, Y+4	; 0x04
    2788:	6d 81       	ldd	r22, Y+5	; 0x05
    278a:	7e 81       	ldd	r23, Y+6	; 0x06
}
    278c:	8f 81       	ldd	r24, Y+7	; 0x07
    278e:	98 85       	ldd	r25, Y+8	; 0x08
    2790:	29 96       	adiw	r28, 0x09	; 9
    2792:	0f b6       	in	r0, 0x3f	; 63
    2794:	f8 94       	cli
    2796:	de bf       	out	0x3e, r29	; 62
    2798:	0f be       	out	0x3f, r0	; 63
    279a:	cd bf       	out	0x3d, r28	; 61
    279c:	df 91       	pop	r29
    279e:	cf 91       	pop	r28
    27a0:	1f 91       	pop	r17
    27a2:	0f 91       	pop	r16
    27a4:	ff 90       	pop	r15
    27a6:	ef 90       	pop	r14
    27a8:	df 90       	pop	r13
    27aa:	cf 90       	pop	r12
    27ac:	bf 90       	pop	r11
    27ae:	af 90       	pop	r10
    27b0:	08 95       	ret

000027b2 <_ZN17TCS34725Exception8ToStringEv>:
{
	if(subMessage!=NULL)
		delete subMessage;
	this->~Exception();
} //~TC654Exception
const char* TCS34725Exception::ToString(){
    27b2:	ef 92       	push	r14
    27b4:	ff 92       	push	r15
    27b6:	0f 93       	push	r16
    27b8:	1f 93       	push	r17
    27ba:	cf 93       	push	r28
    27bc:	df 93       	push	r29
    27be:	ec 01       	movw	r28, r24
	if(message==NULL){
    27c0:	8a 81       	ldd	r24, Y+2	; 0x02
    27c2:	9b 81       	ldd	r25, Y+3	; 0x03
    27c4:	89 2b       	or	r24, r25
    27c6:	09 f0       	breq	.+2      	; 0x27ca <_ZN17TCS34725Exception8ToStringEv+0x18>
    27c8:	60 c0       	rjmp	.+192    	; 0x288a <_ZN17TCS34725Exception8ToStringEv+0xd8>
		size_t totalLength;
		switch(type){
    27ca:	8c 81       	ldd	r24, Y+4	; 0x04
    27cc:	88 23       	and	r24, r24
    27ce:	19 f0       	breq	.+6      	; 0x27d6 <_ZN17TCS34725Exception8ToStringEv+0x24>
    27d0:	81 30       	cpi	r24, 0x01	; 1
    27d2:	79 f1       	breq	.+94     	; 0x2832 <_ZN17TCS34725Exception8ToStringEv+0x80>
    27d4:	5a c0       	rjmp	.+180    	; 0x288a <_ZN17TCS34725Exception8ToStringEv+0xd8>
			case Configuration:
			totalLength = strlen(name)+68;
    27d6:	fd 80       	ldd	r15, Y+5	; 0x05
    27d8:	ee 80       	ldd	r14, Y+6	; 0x06
    27da:	ef 2d       	mov	r30, r15
    27dc:	fe 2d       	mov	r31, r14
    27de:	df 01       	movw	r26, r30
    27e0:	0d 90       	ld	r0, X+
    27e2:	00 20       	and	r0, r0
    27e4:	e9 f7       	brne	.-6      	; 0x27e0 <_ZN17TCS34725Exception8ToStringEv+0x2e>
    27e6:	8d 01       	movw	r16, r26
    27e8:	0e 1b       	sub	r16, r30
    27ea:	1f 0b       	sbc	r17, r31
    27ec:	0d 5b       	subi	r16, 0xBD	; 189
    27ee:	1f 4f       	sbci	r17, 0xFF	; 255
			message=(char*)malloc(sizeof(char)*totalLength);
    27f0:	c8 01       	movw	r24, r16
    27f2:	0e 94 14 18 	call	0x3028	; 0x3028 <malloc>
    27f6:	9b 83       	std	Y+3, r25	; 0x03
    27f8:	8a 83       	std	Y+2, r24	; 0x02
			if(message!=NULL){
    27fa:	00 97       	sbiw	r24, 0x00	; 0
    27fc:	09 f4       	brne	.+2      	; 0x2800 <_ZN17TCS34725Exception8ToStringEv+0x4e>
    27fe:	45 c0       	rjmp	.+138    	; 0x288a <_ZN17TCS34725Exception8ToStringEv+0xd8>
				snprintf_P(message,totalLength, PSTR("%s experienced a configuration error: %s"),name, subMessage);
    2800:	28 85       	ldd	r18, Y+8	; 0x08
    2802:	2f 93       	push	r18
    2804:	2f 81       	ldd	r18, Y+7	; 0x07
    2806:	2f 93       	push	r18
    2808:	ef 92       	push	r14
    280a:	ff 92       	push	r15
    280c:	2e ec       	ldi	r18, 0xCE	; 206
    280e:	31 e0       	ldi	r19, 0x01	; 1
    2810:	3f 93       	push	r19
    2812:	2f 93       	push	r18
    2814:	1f 93       	push	r17
    2816:	0f 93       	push	r16
    2818:	9f 93       	push	r25
    281a:	8f 93       	push	r24
    281c:	0e 94 60 19 	call	0x32c0	; 0x32c0 <snprintf_P>
    2820:	8d b7       	in	r24, 0x3d	; 61
    2822:	9e b7       	in	r25, 0x3e	; 62
    2824:	0a 96       	adiw	r24, 0x0a	; 10
    2826:	0f b6       	in	r0, 0x3f	; 63
    2828:	f8 94       	cli
    282a:	9e bf       	out	0x3e, r25	; 62
    282c:	0f be       	out	0x3f, r0	; 63
    282e:	8d bf       	out	0x3d, r24	; 61
    2830:	2c c0       	rjmp	.+88     	; 0x288a <_ZN17TCS34725Exception8ToStringEv+0xd8>
			}
			break;
			case Communication:
			totalLength = strlen(name)+68;
    2832:	fd 80       	ldd	r15, Y+5	; 0x05
    2834:	ee 80       	ldd	r14, Y+6	; 0x06
    2836:	ef 2d       	mov	r30, r15
    2838:	fe 2d       	mov	r31, r14
    283a:	df 01       	movw	r26, r30
    283c:	0d 90       	ld	r0, X+
    283e:	00 20       	and	r0, r0
    2840:	e9 f7       	brne	.-6      	; 0x283c <_ZN17TCS34725Exception8ToStringEv+0x8a>
    2842:	8d 01       	movw	r16, r26
    2844:	0e 1b       	sub	r16, r30
    2846:	1f 0b       	sbc	r17, r31
    2848:	0d 5b       	subi	r16, 0xBD	; 189
    284a:	1f 4f       	sbci	r17, 0xFF	; 255
			message=(char*)malloc(sizeof(char)*totalLength);
    284c:	c8 01       	movw	r24, r16
    284e:	0e 94 14 18 	call	0x3028	; 0x3028 <malloc>
    2852:	9b 83       	std	Y+3, r25	; 0x03
    2854:	8a 83       	std	Y+2, r24	; 0x02
			if(message!=NULL){
    2856:	00 97       	sbiw	r24, 0x00	; 0
    2858:	c1 f0       	breq	.+48     	; 0x288a <_ZN17TCS34725Exception8ToStringEv+0xd8>
				snprintf_P(message,totalLength, PSTR("%s experienced a communication error: %s"),name, subMessage);
    285a:	28 85       	ldd	r18, Y+8	; 0x08
    285c:	2f 93       	push	r18
    285e:	2f 81       	ldd	r18, Y+7	; 0x07
    2860:	2f 93       	push	r18
    2862:	ef 92       	push	r14
    2864:	ff 92       	push	r15
    2866:	25 ea       	ldi	r18, 0xA5	; 165
    2868:	31 e0       	ldi	r19, 0x01	; 1
    286a:	3f 93       	push	r19
    286c:	2f 93       	push	r18
    286e:	1f 93       	push	r17
    2870:	0f 93       	push	r16
    2872:	9f 93       	push	r25
    2874:	8f 93       	push	r24
    2876:	0e 94 60 19 	call	0x32c0	; 0x32c0 <snprintf_P>
    287a:	8d b7       	in	r24, 0x3d	; 61
    287c:	9e b7       	in	r25, 0x3e	; 62
    287e:	0a 96       	adiw	r24, 0x0a	; 10
    2880:	0f b6       	in	r0, 0x3f	; 63
    2882:	f8 94       	cli
    2884:	9e bf       	out	0x3e, r25	; 62
    2886:	0f be       	out	0x3f, r0	; 63
    2888:	8d bf       	out	0x3d, r24	; 61
			}
			break;
		}
	}
	return message;
    288a:	8a 81       	ldd	r24, Y+2	; 0x02
    288c:	9b 81       	ldd	r25, Y+3	; 0x03
    288e:	df 91       	pop	r29
    2890:	cf 91       	pop	r28
    2892:	1f 91       	pop	r17
    2894:	0f 91       	pop	r16
    2896:	ff 90       	pop	r15
    2898:	ef 90       	pop	r14
    289a:	08 95       	ret

0000289c <_ZN17TCS34725ExceptionC1EPKcPcNS_4TypeE>:
#include <stdlib.h>
#include<avr/pgmspace.h>
#include "TCS34725Exception.h"

// default constructor
TCS34725Exception::TCS34725Exception(const char* name, char* subMessage, Type type):name(name), type(type)
    289c:	ff 92       	push	r15
    289e:	0f 93       	push	r16
    28a0:	1f 93       	push	r17
    28a2:	cf 93       	push	r28
    28a4:	df 93       	push	r29
    28a6:	ec 01       	movw	r28, r24
    28a8:	8b 01       	movw	r16, r22
    28aa:	f2 2e       	mov	r15, r18
    28ac:	0e 94 0b 07 	call	0xe16	; 0xe16 <_ZN9ExceptionC1Ev>
    28b0:	89 ea       	ldi	r24, 0xA9	; 169
    28b2:	92 e0       	ldi	r25, 0x02	; 2
    28b4:	99 83       	std	Y+1, r25	; 0x01
    28b6:	88 83       	st	Y, r24
    28b8:	fc 82       	std	Y+4, r15	; 0x04
    28ba:	1e 83       	std	Y+6, r17	; 0x06
    28bc:	0d 83       	std	Y+5, r16	; 0x05
{
if(subMessage!=NULL)
		subMessage=(char*)malloc(strlen(subMessage)+1);
} //TC654Exception
    28be:	df 91       	pop	r29
    28c0:	cf 91       	pop	r28
    28c2:	1f 91       	pop	r17
    28c4:	0f 91       	pop	r16
    28c6:	ff 90       	pop	r15
    28c8:	08 95       	ret

000028ca <_ZN14TCS34725Helper8GetATimeEj>:
#include "i2cmaster.h"
#include "TCS34725.h"
#include "CommunicationException.h"
#include "TCS34725Helper.h"
unsigned char TCS34725Helper::GetATime(uint16_t milliseconds){
	uint16_t m=(milliseconds* 10)/24;
    28ca:	9c 01       	movw	r18, r24
    28cc:	22 0f       	add	r18, r18
    28ce:	33 1f       	adc	r19, r19
    28d0:	88 0f       	add	r24, r24
    28d2:	99 1f       	adc	r25, r25
    28d4:	88 0f       	add	r24, r24
    28d6:	99 1f       	adc	r25, r25
    28d8:	88 0f       	add	r24, r24
    28da:	99 1f       	adc	r25, r25
    28dc:	28 0f       	add	r18, r24
    28de:	39 1f       	adc	r19, r25
    28e0:	ab ea       	ldi	r26, 0xAB	; 171
    28e2:	ba ea       	ldi	r27, 0xAA	; 170
    28e4:	0e 94 fa 17 	call	0x2ff4	; 0x2ff4 <__umulhisi3>
    28e8:	92 95       	swap	r25
    28ea:	82 95       	swap	r24
    28ec:	8f 70       	andi	r24, 0x0F	; 15
    28ee:	89 27       	eor	r24, r25
    28f0:	9f 70       	andi	r25, 0x0F	; 15
    28f2:	89 27       	eor	r24, r25
	if(m>0xff)
	m=0xff;
	return (char)m;
    28f4:	8f 3f       	cpi	r24, 0xFF	; 255
    28f6:	91 05       	cpc	r25, r1
    28f8:	19 f0       	breq	.+6      	; 0x2900 <_ZN14TCS34725Helper8GetATimeEj+0x36>
    28fa:	10 f0       	brcs	.+4      	; 0x2900 <_ZN14TCS34725Helper8GetATimeEj+0x36>
    28fc:	8f ef       	ldi	r24, 0xFF	; 255
    28fe:	90 e0       	ldi	r25, 0x00	; 0
}
    2900:	08 95       	ret

00002902 <_ZN14TCS34725Helper8GetAGainEc>:
unsigned char TCS34725Helper::GetAGain(char gain){
	switch(gain)
    2902:	84 30       	cpi	r24, 0x04	; 4
    2904:	29 f0       	breq	.+10     	; 0x2910 <_ZN14TCS34725Helper8GetAGainEc+0xe>
    2906:	80 31       	cpi	r24, 0x10	; 16
    2908:	29 f0       	breq	.+10     	; 0x2914 <_ZN14TCS34725Helper8GetAGainEc+0x12>
    290a:	81 30       	cpi	r24, 0x01	; 1
    290c:	29 f4       	brne	.+10     	; 0x2918 <_ZN14TCS34725Helper8GetAGainEc+0x16>
    290e:	06 c0       	rjmp	.+12     	; 0x291c <_ZN14TCS34725Helper8GetAGainEc+0x1a>
	{

	case 1:
	return 0x00;
	case 4:
	return 0x01;
    2910:	81 e0       	ldi	r24, 0x01	; 1
    2912:	08 95       	ret
	case 16:
	return 0x02;
    2914:	82 e0       	ldi	r24, 0x02	; 2
    2916:	08 95       	ret
	default:
	return 0x03;
    2918:	83 e0       	ldi	r24, 0x03	; 3
    291a:	08 95       	ret
unsigned char TCS34725Helper::GetAGain(char gain){
	switch(gain)
	{

	case 1:
	return 0x00;
    291c:	80 e0       	ldi	r24, 0x00	; 0
	case 16:
	return 0x02;
	default:
	return 0x03;
	}
}
    291e:	08 95       	ret

00002920 <_ZN14TCS34725Helper12CalculatWaitEjh>:
TCS34725Helper::Wait TCS34725Helper::CalculatWait(uint16_t desired_ua, unsigned char aTime)
{
    2920:	4f 92       	push	r4
    2922:	5f 92       	push	r5
    2924:	6f 92       	push	r6
    2926:	7f 92       	push	r7
    2928:	8f 92       	push	r8
    292a:	9f 92       	push	r9
    292c:	af 92       	push	r10
    292e:	bf 92       	push	r11
    2930:	cf 92       	push	r12
    2932:	df 92       	push	r13
    2934:	ef 92       	push	r14
    2936:	ff 92       	push	r15
    2938:	0f 93       	push	r16
    293a:	1f 93       	push	r17
	uint32_t w =(((((uint32_t)(aTime)+1) *  564)-((((uint32_t)desired_ua)*24*(((uint32_t)aTime)+1))/10))/(((uint32_t)desired_ua) - 65 ));
    293c:	86 2e       	mov	r8, r22
    293e:	91 2c       	mov	r9, r1
    2940:	a1 2c       	mov	r10, r1
    2942:	b1 2c       	mov	r11, r1
    2944:	0f ef       	ldi	r16, 0xFF	; 255
    2946:	80 1a       	sub	r8, r16
    2948:	90 0a       	sbc	r9, r16
    294a:	a0 0a       	sbc	r10, r16
    294c:	b0 0a       	sbc	r11, r16
    294e:	6c 01       	movw	r12, r24
    2950:	e1 2c       	mov	r14, r1
    2952:	f1 2c       	mov	r15, r1
    2954:	a4 e3       	ldi	r26, 0x34	; 52
    2956:	b2 e0       	ldi	r27, 0x02	; 2
    2958:	a5 01       	movw	r20, r10
    295a:	94 01       	movw	r18, r8
    295c:	0e 94 09 18 	call	0x3012	; 0x3012 <__muluhisi3>
    2960:	2b 01       	movw	r4, r22
    2962:	3c 01       	movw	r6, r24
    2964:	d7 01       	movw	r26, r14
    2966:	c6 01       	movw	r24, r12
    2968:	88 0f       	add	r24, r24
    296a:	99 1f       	adc	r25, r25
    296c:	aa 1f       	adc	r26, r26
    296e:	bb 1f       	adc	r27, r27
    2970:	8c 0d       	add	r24, r12
    2972:	9d 1d       	adc	r25, r13
    2974:	ae 1d       	adc	r26, r14
    2976:	bf 1d       	adc	r27, r15
    2978:	88 0f       	add	r24, r24
    297a:	99 1f       	adc	r25, r25
    297c:	aa 1f       	adc	r26, r26
    297e:	bb 1f       	adc	r27, r27
    2980:	88 0f       	add	r24, r24
    2982:	99 1f       	adc	r25, r25
    2984:	aa 1f       	adc	r26, r26
    2986:	bb 1f       	adc	r27, r27
    2988:	9c 01       	movw	r18, r24
    298a:	ad 01       	movw	r20, r26
    298c:	22 0f       	add	r18, r18
    298e:	33 1f       	adc	r19, r19
    2990:	44 1f       	adc	r20, r20
    2992:	55 1f       	adc	r21, r21
    2994:	c5 01       	movw	r24, r10
    2996:	b4 01       	movw	r22, r8
    2998:	0e 94 c2 17 	call	0x2f84	; 0x2f84 <__mulsi3>
    299c:	2a e0       	ldi	r18, 0x0A	; 10
    299e:	30 e0       	ldi	r19, 0x00	; 0
    29a0:	40 e0       	ldi	r20, 0x00	; 0
    29a2:	50 e0       	ldi	r21, 0x00	; 0
    29a4:	0e 94 d2 17 	call	0x2fa4	; 0x2fa4 <__udivmodsi4>
    29a8:	c3 01       	movw	r24, r6
    29aa:	b2 01       	movw	r22, r4
    29ac:	62 1b       	sub	r22, r18
    29ae:	73 0b       	sbc	r23, r19
    29b0:	84 0b       	sbc	r24, r20
    29b2:	95 0b       	sbc	r25, r21
    29b4:	a7 01       	movw	r20, r14
    29b6:	96 01       	movw	r18, r12
    29b8:	21 54       	subi	r18, 0x41	; 65
    29ba:	31 09       	sbc	r19, r1
    29bc:	41 09       	sbc	r20, r1
    29be:	51 09       	sbc	r21, r1
    29c0:	0e 94 d2 17 	call	0x2fa4	; 0x2fa4 <__udivmodsi4>
	char wtime;
	bool wlong=false;
	if(w>614)
    29c4:	27 36       	cpi	r18, 0x67	; 103
    29c6:	12 e0       	ldi	r17, 0x02	; 2
    29c8:	31 07       	cpc	r19, r17
    29ca:	41 05       	cpc	r20, r1
    29cc:	51 05       	cpc	r21, r1
    29ce:	08 f1       	brcs	.+66     	; 0x2a12 <_ZN14TCS34725Helper12CalculatWaitEjh+0xf2>
	{ 
		wtime=(w*10)/288;
    29d0:	ba 01       	movw	r22, r20
    29d2:	a9 01       	movw	r20, r18
    29d4:	44 0f       	add	r20, r20
    29d6:	55 1f       	adc	r21, r21
    29d8:	66 1f       	adc	r22, r22
    29da:	77 1f       	adc	r23, r23
    29dc:	db 01       	movw	r26, r22
    29de:	ca 01       	movw	r24, r20
    29e0:	88 0f       	add	r24, r24
    29e2:	99 1f       	adc	r25, r25
    29e4:	aa 1f       	adc	r26, r26
    29e6:	bb 1f       	adc	r27, r27
    29e8:	88 0f       	add	r24, r24
    29ea:	99 1f       	adc	r25, r25
    29ec:	aa 1f       	adc	r26, r26
    29ee:	bb 1f       	adc	r27, r27
    29f0:	8a 01       	movw	r16, r20
    29f2:	9b 01       	movw	r18, r22
    29f4:	08 0f       	add	r16, r24
    29f6:	19 1f       	adc	r17, r25
    29f8:	2a 1f       	adc	r18, r26
    29fa:	3b 1f       	adc	r19, r27
    29fc:	c9 01       	movw	r24, r18
    29fe:	b8 01       	movw	r22, r16
    2a00:	20 e2       	ldi	r18, 0x20	; 32
    2a02:	31 e0       	ldi	r19, 0x01	; 1
    2a04:	40 e0       	ldi	r20, 0x00	; 0
    2a06:	50 e0       	ldi	r21, 0x00	; 0
    2a08:	0e 94 d2 17 	call	0x2fa4	; 0x2fa4 <__udivmodsi4>
    2a0c:	82 2f       	mov	r24, r18
		wlong=true;
    2a0e:	91 e0       	ldi	r25, 0x01	; 1
    2a10:	20 c0       	rjmp	.+64     	; 0x2a52 <_ZN14TCS34725Helper12CalculatWaitEjh+0x132>
	}
	else
		wtime = (w*10)/24;
    2a12:	ba 01       	movw	r22, r20
    2a14:	a9 01       	movw	r20, r18
    2a16:	44 0f       	add	r20, r20
    2a18:	55 1f       	adc	r21, r21
    2a1a:	66 1f       	adc	r22, r22
    2a1c:	77 1f       	adc	r23, r23
    2a1e:	db 01       	movw	r26, r22
    2a20:	ca 01       	movw	r24, r20
    2a22:	88 0f       	add	r24, r24
    2a24:	99 1f       	adc	r25, r25
    2a26:	aa 1f       	adc	r26, r26
    2a28:	bb 1f       	adc	r27, r27
    2a2a:	88 0f       	add	r24, r24
    2a2c:	99 1f       	adc	r25, r25
    2a2e:	aa 1f       	adc	r26, r26
    2a30:	bb 1f       	adc	r27, r27
    2a32:	8a 01       	movw	r16, r20
    2a34:	9b 01       	movw	r18, r22
    2a36:	08 0f       	add	r16, r24
    2a38:	19 1f       	adc	r17, r25
    2a3a:	2a 1f       	adc	r18, r26
    2a3c:	3b 1f       	adc	r19, r27
    2a3e:	c9 01       	movw	r24, r18
    2a40:	b8 01       	movw	r22, r16
    2a42:	28 e1       	ldi	r18, 0x18	; 24
    2a44:	30 e0       	ldi	r19, 0x00	; 0
    2a46:	40 e0       	ldi	r20, 0x00	; 0
    2a48:	50 e0       	ldi	r21, 0x00	; 0
    2a4a:	0e 94 d2 17 	call	0x2fa4	; 0x2fa4 <__udivmodsi4>
    2a4e:	82 2f       	mov	r24, r18
}
TCS34725Helper::Wait TCS34725Helper::CalculatWait(uint16_t desired_ua, unsigned char aTime)
{
	uint32_t w =(((((uint32_t)(aTime)+1) *  564)-((((uint32_t)desired_ua)*24*(((uint32_t)aTime)+1))/10))/(((uint32_t)desired_ua) - 65 ));
	char wtime;
	bool wlong=false;
    2a50:	90 e0       	ldi	r25, 0x00	; 0
	else
		wtime = (w*10)/24;
	if(wtime>0xff)
		wtime=0xff;
	return Wait( (char) wtime, wlong);
}
    2a52:	1f 91       	pop	r17
    2a54:	0f 91       	pop	r16
    2a56:	ff 90       	pop	r15
    2a58:	ef 90       	pop	r14
    2a5a:	df 90       	pop	r13
    2a5c:	cf 90       	pop	r12
    2a5e:	bf 90       	pop	r11
    2a60:	af 90       	pop	r10
    2a62:	9f 90       	pop	r9
    2a64:	8f 90       	pop	r8
    2a66:	7f 90       	pop	r7
    2a68:	6f 90       	pop	r6
    2a6a:	5f 90       	pop	r5
    2a6c:	4f 90       	pop	r4
    2a6e:	08 95       	ret

00002a70 <_ZN17TCS34725UnitTests11TestGetRGBA7GetNameEv>:
	private:
	IGetRGBC* iGetRGBC;
	public:
	TestGetRGBA(IGetRGBC* iGetRGBC): Test() , iGetRGBC(iGetRGBC) {}
	void Run(bool& successful, Exceptions& exceptions, ISendMessage*iSendMessage);
	Cleanup<const char*> GetName (){
    2a70:	cf 93       	push	r28
    2a72:	df 93       	push	r29
    2a74:	ec 01       	movw	r28, r24
	Test(){}
	virtual void Run(bool& successful, Exceptions& exceptions, ISendMessage*iSendMessage)=0;
	virtual Cleanup<const char*> GetName ();
	protected:
	Cleanup<const char*> _GetName(const char* p){
		return PHelper::Marshal(p);
    2a76:	69 ed       	ldi	r22, 0xD9	; 217
    2a78:	72 e0       	ldi	r23, 0x02	; 2
    2a7a:	0e 94 4b 02 	call	0x496	; 0x496 <_ZN7PHelper7MarshalEPKc>
		return Test::_GetName(PSTR("GetRGBA"));
	}
    2a7e:	ce 01       	movw	r24, r28
    2a80:	df 91       	pop	r29
    2a82:	cf 91       	pop	r28
    2a84:	08 95       	ret

00002a86 <_ZN17TCS34725UnitTests17TestCalculateWait7GetNameEv>:
};
class  TestCalculateWait:public Test{
	public:
	TestCalculateWait():Test(){}
	void Run(bool& successful, Exceptions& exceptions, ISendMessage*iSendMessage);
	Cleanup<const char*> GetName (){
    2a86:	cf 93       	push	r28
    2a88:	df 93       	push	r29
    2a8a:	ec 01       	movw	r28, r24
    2a8c:	61 ee       	ldi	r22, 0xE1	; 225
    2a8e:	72 e0       	ldi	r23, 0x02	; 2
    2a90:	0e 94 4b 02 	call	0x496	; 0x496 <_ZN7PHelper7MarshalEPKc>
		return Test::_GetName(PSTR("CalculateWait"));
	}
    2a94:	ce 01       	movw	r24, r28
    2a96:	df 91       	pop	r29
    2a98:	cf 91       	pop	r28
    2a9a:	08 95       	ret

00002a9c <_ZN17TCS34725UnitTests12TestGetAGain7GetNameEv>:
	};
	class TestGetAGain:public Test{
		public:
		TestGetAGain():Test(){}
		void Run(bool& successful, Exceptions& exceptions, ISendMessage*iSendMessage);
		Cleanup<const char*> GetName (){
    2a9c:	cf 93       	push	r28
    2a9e:	df 93       	push	r29
    2aa0:	ec 01       	movw	r28, r24
    2aa2:	6f ee       	ldi	r22, 0xEF	; 239
    2aa4:	72 e0       	ldi	r23, 0x02	; 2
    2aa6:	0e 94 4b 02 	call	0x496	; 0x496 <_ZN7PHelper7MarshalEPKc>
			return Test::_GetName(PSTR("GetAGain"));
		}
    2aaa:	ce 01       	movw	r24, r28
    2aac:	df 91       	pop	r29
    2aae:	cf 91       	pop	r28
    2ab0:	08 95       	ret

00002ab2 <_ZN17TCS34725UnitTests12TestGetATime7GetNameEv>:
	class TestGetATime: public Test
	{
		public:
		TestGetATime():Test(){}
		void Run(bool& successful, Exceptions& exceptions, ISendMessage*iSendMessage);
		Cleanup<const char*> GetName (){
    2ab2:	cf 93       	push	r28
    2ab4:	df 93       	push	r29
    2ab6:	ec 01       	movw	r28, r24
    2ab8:	68 ef       	ldi	r22, 0xF8	; 248
    2aba:	72 e0       	ldi	r23, 0x02	; 2
    2abc:	0e 94 4b 02 	call	0x496	; 0x496 <_ZN7PHelper7MarshalEPKc>
		return Test::_GetName(PSTR("GetATime"));
		}
    2ac0:	ce 01       	movw	r24, r28
    2ac2:	df 91       	pop	r29
    2ac4:	cf 91       	pop	r28
    2ac6:	08 95       	ret

00002ac8 <_ZN17TCS34725UnitTests12TestGetATime3RunERbR10ExceptionsP12ISendMessage>:
#include "CommunicationException.h"
#include "TCS34725UnitTests.h"
#include "Assert.h"
#include "../Leds.h"
#include <stdio.h>
void TCS34725UnitTests::TestGetATime::Run(bool&successful, Exceptions& exceptions, ISendMessage*iSendMessage){
    2ac8:	ef 92       	push	r14
    2aca:	ff 92       	push	r15
    2acc:	0f 93       	push	r16
    2ace:	1f 93       	push	r17
    2ad0:	cf 93       	push	r28
    2ad2:	df 93       	push	r29
    2ad4:	00 d0       	rcall	.+0      	; 0x2ad6 <_ZN17TCS34725UnitTests12TestGetATime3RunERbR10ExceptionsP12ISendMessage+0xe>
    2ad6:	1f 92       	push	r1
    2ad8:	cd b7       	in	r28, 0x3d	; 61
    2ada:	de b7       	in	r29, 0x3e	; 62
    2adc:	79 01       	movw	r14, r18
	Assert::IsTrue(TCS34725Helper::GetATime(24)==0x0a,PSTR("GetATime"), PHelper::Marshal(PSTR("GetATime test failed!")).payload, iSendMessage);
    2ade:	63 ec       	ldi	r22, 0xC3	; 195
    2ae0:	72 e0       	ldi	r23, 0x02	; 2
    2ae2:	ce 01       	movw	r24, r28
    2ae4:	01 96       	adiw	r24, 0x01	; 1
    2ae6:	0e 94 4b 02 	call	0x496	; 0x496 <_ZN7PHelper7MarshalEPKc>
    2aea:	09 81       	ldd	r16, Y+1	; 0x01
    2aec:	1a 81       	ldd	r17, Y+2	; 0x02
    2aee:	88 e1       	ldi	r24, 0x18	; 24
    2af0:	90 e0       	ldi	r25, 0x00	; 0
    2af2:	0e 94 65 14 	call	0x28ca	; 0x28ca <_ZN14TCS34725Helper8GetATimeEj>
    2af6:	91 e0       	ldi	r25, 0x01	; 1
    2af8:	8a 30       	cpi	r24, 0x0A	; 10
    2afa:	09 f0       	breq	.+2      	; 0x2afe <_ZN17TCS34725UnitTests12TestGetATime3RunERbR10ExceptionsP12ISendMessage+0x36>
    2afc:	90 e0       	ldi	r25, 0x00	; 0
    2afe:	97 01       	movw	r18, r14
    2b00:	a8 01       	movw	r20, r16
    2b02:	6a eb       	ldi	r22, 0xBA	; 186
    2b04:	72 e0       	ldi	r23, 0x02	; 2
    2b06:	89 2f       	mov	r24, r25
    2b08:	0e 94 c8 06 	call	0xd90	; 0xd90 <_ZN6Assert6IsTrueEbPKcS1_P12ISendMessage>

	// default destructor

	~Cleanup()
	{
		if(!dontDelete)
    2b0c:	8b 81       	ldd	r24, Y+3	; 0x03
    2b0e:	81 11       	cpse	r24, r1
    2b10:	06 c0       	rjmp	.+12     	; 0x2b1e <_ZN17TCS34725UnitTests12TestGetATime3RunERbR10ExceptionsP12ISendMessage+0x56>
		if(payload!=NULL)
    2b12:	89 81       	ldd	r24, Y+1	; 0x01
    2b14:	9a 81       	ldd	r25, Y+2	; 0x02
    2b16:	00 97       	sbiw	r24, 0x00	; 0
    2b18:	11 f0       	breq	.+4      	; 0x2b1e <_ZN17TCS34725UnitTests12TestGetATime3RunERbR10ExceptionsP12ISendMessage+0x56>
		delete payload;
    2b1a:	0e 94 84 08 	call	0x1108	; 0x1108 <_ZdlPv>
}
    2b1e:	0f 90       	pop	r0
    2b20:	0f 90       	pop	r0
    2b22:	0f 90       	pop	r0
    2b24:	df 91       	pop	r29
    2b26:	cf 91       	pop	r28
    2b28:	1f 91       	pop	r17
    2b2a:	0f 91       	pop	r16
    2b2c:	ff 90       	pop	r15
    2b2e:	ef 90       	pop	r14
    2b30:	08 95       	ret

00002b32 <_ZN17TCS34725UnitTests12TestGetAGain3RunERbR10ExceptionsP12ISendMessage>:
void TCS34725UnitTests::TestGetAGain::Run(bool& successful, Exceptions& exceptions, ISendMessage*iSendMessage){
    2b32:	ef 92       	push	r14
    2b34:	ff 92       	push	r15
    2b36:	0f 93       	push	r16
    2b38:	1f 93       	push	r17
    2b3a:	cf 93       	push	r28
    2b3c:	df 93       	push	r29
    2b3e:	00 d0       	rcall	.+0      	; 0x2b40 <_ZN17TCS34725UnitTests12TestGetAGain3RunERbR10ExceptionsP12ISendMessage+0xe>
    2b40:	1f 92       	push	r1
    2b42:	cd b7       	in	r28, 0x3d	; 61
    2b44:	de b7       	in	r29, 0x3e	; 62
    2b46:	79 01       	movw	r14, r18
	Assert::IsTrue(TCS34725Helper::GetAGain(1)==0x00,PSTR("GetAGain"), PHelper::Marshal(PSTR("GetAGain test failed!")).payload, iSendMessage);
    2b48:	64 ea       	ldi	r22, 0xA4	; 164
    2b4a:	72 e0       	ldi	r23, 0x02	; 2
    2b4c:	ce 01       	movw	r24, r28
    2b4e:	01 96       	adiw	r24, 0x01	; 1
    2b50:	0e 94 4b 02 	call	0x496	; 0x496 <_ZN7PHelper7MarshalEPKc>
    2b54:	09 81       	ldd	r16, Y+1	; 0x01
    2b56:	1a 81       	ldd	r17, Y+2	; 0x02
    2b58:	81 e0       	ldi	r24, 0x01	; 1
    2b5a:	0e 94 81 14 	call	0x2902	; 0x2902 <_ZN14TCS34725Helper8GetAGainEc>
    2b5e:	91 e0       	ldi	r25, 0x01	; 1
    2b60:	81 11       	cpse	r24, r1
    2b62:	90 e0       	ldi	r25, 0x00	; 0
    2b64:	97 01       	movw	r18, r14
    2b66:	a8 01       	movw	r20, r16
    2b68:	6b e9       	ldi	r22, 0x9B	; 155
    2b6a:	72 e0       	ldi	r23, 0x02	; 2
    2b6c:	89 2f       	mov	r24, r25
    2b6e:	0e 94 c8 06 	call	0xd90	; 0xd90 <_ZN6Assert6IsTrueEbPKcS1_P12ISendMessage>

	// default destructor

	~Cleanup()
	{
		if(!dontDelete)
    2b72:	8b 81       	ldd	r24, Y+3	; 0x03
    2b74:	81 11       	cpse	r24, r1
    2b76:	06 c0       	rjmp	.+12     	; 0x2b84 <_ZN17TCS34725UnitTests12TestGetAGain3RunERbR10ExceptionsP12ISendMessage+0x52>
		if(payload!=NULL)
    2b78:	89 81       	ldd	r24, Y+1	; 0x01
    2b7a:	9a 81       	ldd	r25, Y+2	; 0x02
    2b7c:	00 97       	sbiw	r24, 0x00	; 0
    2b7e:	11 f0       	breq	.+4      	; 0x2b84 <_ZN17TCS34725UnitTests12TestGetAGain3RunERbR10ExceptionsP12ISendMessage+0x52>
		delete payload;
    2b80:	0e 94 84 08 	call	0x1108	; 0x1108 <_ZdlPv>
}
    2b84:	0f 90       	pop	r0
    2b86:	0f 90       	pop	r0
    2b88:	0f 90       	pop	r0
    2b8a:	df 91       	pop	r29
    2b8c:	cf 91       	pop	r28
    2b8e:	1f 91       	pop	r17
    2b90:	0f 91       	pop	r16
    2b92:	ff 90       	pop	r15
    2b94:	ef 90       	pop	r14
    2b96:	08 95       	ret

00002b98 <_ZN17TCS34725UnitTests17TestCalculateWait3RunERbR10ExceptionsP12ISendMessage>:
//((wait_ms  0.065) + (atime_ms  0.235) + (2.40  0.235)) / (atime_ms+wait_ms+2.4)  =current uA
//(240  0.065) + (43.2  0.235) + (2.40  0.235)) / (285.6)=92.1
//(720  0.065) + (43.2  0.235) + (2.40  0.235)) / (765.6)=75.1
void  TCS34725UnitTests::TestCalculateWait::Run(bool& successful, Exceptions& exceptions, ISendMessage*iSendMessage){
    2b98:	ef 92       	push	r14
    2b9a:	ff 92       	push	r15
    2b9c:	0f 93       	push	r16
    2b9e:	1f 93       	push	r17
    2ba0:	cf 93       	push	r28
    2ba2:	df 93       	push	r29
    2ba4:	cd b7       	in	r28, 0x3d	; 61
    2ba6:	de b7       	in	r29, 0x3e	; 62
    2ba8:	c9 57       	subi	r28, 0x79	; 121
    2baa:	d1 09       	sbc	r29, r1
    2bac:	0f b6       	in	r0, 0x3f	; 63
    2bae:	f8 94       	cli
    2bb0:	de bf       	out	0x3e, r29	; 62
    2bb2:	0f be       	out	0x3f, r0	; 63
    2bb4:	cd bf       	out	0x3d, r28	; 61
    2bb6:	79 01       	movw	r14, r18
	TCS34725Helper::Wait wait = TCS34725Helper::CalculatWait(92, 18);
    2bb8:	62 e1       	ldi	r22, 0x12	; 18
    2bba:	8c e5       	ldi	r24, 0x5C	; 92
    2bbc:	90 e0       	ldi	r25, 0x00	; 0
    2bbe:	0e 94 90 14 	call	0x2920	; 0x2920 <_ZN14TCS34725Helper12CalculatWaitEjh>
	if(wait.time!=100){
    2bc2:	84 36       	cpi	r24, 0x64	; 100
    2bc4:	f9 f0       	breq	.+62     	; 0x2c04 <_ZN17TCS34725UnitTests17TestCalculateWait3RunERbR10ExceptionsP12ISendMessage+0x6c>
	char exception[60];
	snprintf_P(exception,60, PSTR("GetCalculateWait test failed with WTIME: %04d and WLONG: %01d."), wait.time, wait.isLong);
    2bc6:	1f 92       	push	r1
    2bc8:	9f 93       	push	r25
    2bca:	1f 92       	push	r1
    2bcc:	8f 93       	push	r24
    2bce:	8c e5       	ldi	r24, 0x5C	; 92
    2bd0:	92 e0       	ldi	r25, 0x02	; 2
    2bd2:	9f 93       	push	r25
    2bd4:	8f 93       	push	r24
    2bd6:	1f 92       	push	r1
    2bd8:	8c e3       	ldi	r24, 0x3C	; 60
    2bda:	8f 93       	push	r24
    2bdc:	8e 01       	movw	r16, r28
    2bde:	02 5c       	subi	r16, 0xC2	; 194
    2be0:	1f 4f       	sbci	r17, 0xFF	; 255
    2be2:	1f 93       	push	r17
    2be4:	0f 93       	push	r16
    2be6:	0e 94 60 19 	call	0x32c0	; 0x32c0 <snprintf_P>
		Assert::IsTrue(false ,PSTR("CalculateWait"), exception, iSendMessage);
    2bea:	97 01       	movw	r18, r14
    2bec:	a8 01       	movw	r20, r16
    2bee:	6e e4       	ldi	r22, 0x4E	; 78
    2bf0:	72 e0       	ldi	r23, 0x02	; 2
    2bf2:	80 e0       	ldi	r24, 0x00	; 0
    2bf4:	0e 94 c8 06 	call	0xd90	; 0xd90 <_ZN6Assert6IsTrueEbPKcS1_P12ISendMessage>
    2bf8:	0f b6       	in	r0, 0x3f	; 63
    2bfa:	f8 94       	cli
    2bfc:	de bf       	out	0x3e, r29	; 62
    2bfe:	0f be       	out	0x3f, r0	; 63
    2c00:	cd bf       	out	0x3d, r28	; 61
    2c02:	28 c0       	rjmp	.+80     	; 0x2c54 <_ZN17TCS34725UnitTests17TestCalculateWait3RunERbR10ExceptionsP12ISendMessage+0xbc>
		return;
	}
	wait = TCS34725Helper::CalculatWait(75, 18);
    2c04:	62 e1       	ldi	r22, 0x12	; 18
    2c06:	8b e4       	ldi	r24, 0x4B	; 75
    2c08:	90 e0       	ldi	r25, 0x00	; 0
    2c0a:	0e 94 90 14 	call	0x2920	; 0x2920 <_ZN14TCS34725Helper12CalculatWaitEjh>
    2c0e:	18 2f       	mov	r17, r24
	char exception2[61];
	snprintf_P(exception2,61, PSTR("GetCalculateWait test2 failed with WTIME:  %04d and WLONG: %01d."), wait.time, wait.isLong);
    2c10:	1f 92       	push	r1
    2c12:	9f 93       	push	r25
    2c14:	1f 92       	push	r1
    2c16:	8f 93       	push	r24
    2c18:	8d e0       	ldi	r24, 0x0D	; 13
    2c1a:	92 e0       	ldi	r25, 0x02	; 2
    2c1c:	9f 93       	push	r25
    2c1e:	8f 93       	push	r24
    2c20:	1f 92       	push	r1
    2c22:	8d e3       	ldi	r24, 0x3D	; 61
    2c24:	8f 93       	push	r24
    2c26:	ce 01       	movw	r24, r28
    2c28:	01 96       	adiw	r24, 0x01	; 1
    2c2a:	9f 93       	push	r25
    2c2c:	8f 93       	push	r24
    2c2e:	0e 94 60 19 	call	0x32c0	; 0x32c0 <snprintf_P>
	Assert::IsTrue(wait.time==25,PSTR("CalculateWait"), exception2, iSendMessage);
    2c32:	81 e0       	ldi	r24, 0x01	; 1
    2c34:	19 31       	cpi	r17, 0x19	; 25
    2c36:	09 f0       	breq	.+2      	; 0x2c3a <_ZN17TCS34725UnitTests17TestCalculateWait3RunERbR10ExceptionsP12ISendMessage+0xa2>
    2c38:	80 e0       	ldi	r24, 0x00	; 0
    2c3a:	97 01       	movw	r18, r14
    2c3c:	ae 01       	movw	r20, r28
    2c3e:	4f 5f       	subi	r20, 0xFF	; 255
    2c40:	5f 4f       	sbci	r21, 0xFF	; 255
    2c42:	6f ef       	ldi	r22, 0xFF	; 255
    2c44:	71 e0       	ldi	r23, 0x01	; 1
    2c46:	0e 94 c8 06 	call	0xd90	; 0xd90 <_ZN6Assert6IsTrueEbPKcS1_P12ISendMessage>
    2c4a:	0f b6       	in	r0, 0x3f	; 63
    2c4c:	f8 94       	cli
    2c4e:	de bf       	out	0x3e, r29	; 62
    2c50:	0f be       	out	0x3f, r0	; 63
    2c52:	cd bf       	out	0x3d, r28	; 61
}
    2c54:	c7 58       	subi	r28, 0x87	; 135
    2c56:	df 4f       	sbci	r29, 0xFF	; 255
    2c58:	0f b6       	in	r0, 0x3f	; 63
    2c5a:	f8 94       	cli
    2c5c:	de bf       	out	0x3e, r29	; 62
    2c5e:	0f be       	out	0x3f, r0	; 63
    2c60:	cd bf       	out	0x3d, r28	; 61
    2c62:	df 91       	pop	r29
    2c64:	cf 91       	pop	r28
    2c66:	1f 91       	pop	r17
    2c68:	0f 91       	pop	r16
    2c6a:	ff 90       	pop	r15
    2c6c:	ef 90       	pop	r14
    2c6e:	08 95       	ret

00002c70 <_ZN17TCS34725UnitTests11TestGetRGBA3RunERbR10ExceptionsP12ISendMessage>:
void  TCS34725UnitTests::TestGetRGBA::Run(bool& successful, Exceptions& exceptions, ISendMessage*iSendMessage){
    2c70:	cf 92       	push	r12
    2c72:	df 92       	push	r13
    2c74:	ef 92       	push	r14
    2c76:	ff 92       	push	r15
    2c78:	0f 93       	push	r16
    2c7a:	1f 93       	push	r17
    2c7c:	cf 93       	push	r28
    2c7e:	df 93       	push	r29
    2c80:	cd b7       	in	r28, 0x3d	; 61
    2c82:	de b7       	in	r29, 0x3e	; 62
    2c84:	61 97       	sbiw	r28, 0x11	; 17
    2c86:	0f b6       	in	r0, 0x3f	; 63
    2c88:	f8 94       	cli
    2c8a:	de bf       	out	0x3e, r29	; 62
    2c8c:	0f be       	out	0x3f, r0	; 63
    2c8e:	cd bf       	out	0x3d, r28	; 61
    2c90:	6c 01       	movw	r12, r24
    2c92:	7b 01       	movw	r14, r22
    2c94:	89 01       	movw	r16, r18
	Exceptions ex;
    2c96:	ce 01       	movw	r24, r28
    2c98:	01 96       	adiw	r24, 0x01	; 1
    2c9a:	0e 94 1f 07 	call	0xe3e	; 0xe3e <_ZN10ExceptionsC1Ev>
	Leds::GetInstance().GetBacklight()->TurnOn();
    2c9e:	0e 94 77 0f 	call	0x1eee	; 0x1eee <_ZN4Leds11GetInstanceEv>
    2ca2:	0e 94 c6 0f 	call	0x1f8c	; 0x1f8c <_ZN4Leds12GetBacklightEv>
    2ca6:	dc 01       	movw	r26, r24
    2ca8:	ed 91       	ld	r30, X+
    2caa:	fc 91       	ld	r31, X
    2cac:	01 90       	ld	r0, Z+
    2cae:	f0 81       	ld	r31, Z
    2cb0:	e0 2d       	mov	r30, r0
    2cb2:	09 95       	icall
	RGBC rgbc=iGetRGBC->GetRGBC(successful, ex);
    2cb4:	f6 01       	movw	r30, r12
    2cb6:	82 81       	ldd	r24, Z+2	; 0x02
    2cb8:	93 81       	ldd	r25, Z+3	; 0x03
    2cba:	dc 01       	movw	r26, r24
    2cbc:	ed 91       	ld	r30, X+
    2cbe:	fc 91       	ld	r31, X
    2cc0:	01 90       	ld	r0, Z+
    2cc2:	f0 81       	ld	r31, Z
    2cc4:	e0 2d       	mov	r30, r0
    2cc6:	ae 01       	movw	r20, r28
    2cc8:	4f 5f       	subi	r20, 0xFF	; 255
    2cca:	5f 4f       	sbci	r21, 0xFF	; 255
    2ccc:	b7 01       	movw	r22, r14
    2cce:	09 95       	icall
    2cd0:	2f 83       	std	Y+7, r18	; 0x07
    2cd2:	38 87       	std	Y+8, r19	; 0x08
    2cd4:	49 87       	std	Y+9, r20	; 0x09
    2cd6:	5a 87       	std	Y+10, r21	; 0x0a
    2cd8:	6b 87       	std	Y+11, r22	; 0x0b
    2cda:	7c 87       	std	Y+12, r23	; 0x0c
    2cdc:	8d 87       	std	Y+13, r24	; 0x0d
    2cde:	9e 87       	std	Y+14, r25	; 0x0e
	Cleanup<char*> s = rgbc.ToString();
    2ce0:	be 01       	movw	r22, r28
    2ce2:	69 5f       	subi	r22, 0xF9	; 249
    2ce4:	7f 4f       	sbci	r23, 0xFF	; 255
    2ce6:	ce 01       	movw	r24, r28
    2ce8:	0f 96       	adiw	r24, 0x0f	; 15
    2cea:	0e 94 df 0f 	call	0x1fbe	; 0x1fbe <_ZN4RGBC8ToStringEv>
	iSendMessage->SendMessage(s.payload, strlen(s.payload));
    2cee:	6f 85       	ldd	r22, Y+15	; 0x0f
    2cf0:	78 89       	ldd	r23, Y+16	; 0x10
    2cf2:	fb 01       	movw	r30, r22
    2cf4:	01 90       	ld	r0, Z+
    2cf6:	00 20       	and	r0, r0
    2cf8:	e9 f7       	brne	.-6      	; 0x2cf4 <_ZN17TCS34725UnitTests11TestGetRGBA3RunERbR10ExceptionsP12ISendMessage+0x84>
    2cfa:	31 97       	sbiw	r30, 0x01	; 1
    2cfc:	af 01       	movw	r20, r30
    2cfe:	46 1b       	sub	r20, r22
    2d00:	57 0b       	sbc	r21, r23
    2d02:	d8 01       	movw	r26, r16
    2d04:	ed 91       	ld	r30, X+
    2d06:	fc 91       	ld	r31, X
    2d08:	01 90       	ld	r0, Z+
    2d0a:	f0 81       	ld	r31, Z
    2d0c:	e0 2d       	mov	r30, r0
    2d0e:	c8 01       	movw	r24, r16
    2d10:	09 95       	icall
	Assert::DoesntThrowException(ex,PSTR("GetRGBA"), iSendMessage);
    2d12:	a8 01       	movw	r20, r16
    2d14:	67 ef       	ldi	r22, 0xF7	; 247
    2d16:	71 e0       	ldi	r23, 0x01	; 1
    2d18:	ce 01       	movw	r24, r28
    2d1a:	01 96       	adiw	r24, 0x01	; 1
    2d1c:	0e 94 d4 06 	call	0xda8	; 0xda8 <_ZN6Assert20DoesntThrowExceptionER10ExceptionsPKcP12ISendMessage>

	// default destructor

	~Cleanup()
	{
		if(!dontDelete)
    2d20:	89 89       	ldd	r24, Y+17	; 0x11
    2d22:	81 11       	cpse	r24, r1
    2d24:	06 c0       	rjmp	.+12     	; 0x2d32 <_ZN17TCS34725UnitTests11TestGetRGBA3RunERbR10ExceptionsP12ISendMessage+0xc2>
		if(payload!=NULL)
    2d26:	8f 85       	ldd	r24, Y+15	; 0x0f
    2d28:	98 89       	ldd	r25, Y+16	; 0x10
    2d2a:	00 97       	sbiw	r24, 0x00	; 0
    2d2c:	11 f0       	breq	.+4      	; 0x2d32 <_ZN17TCS34725UnitTests11TestGetRGBA3RunERbR10ExceptionsP12ISendMessage+0xc2>
		delete payload;
    2d2e:	0e 94 84 08 	call	0x1108	; 0x1108 <_ZdlPv>
	char exception2[61];
	snprintf_P(exception2,61, PSTR("GetCalculateWait test2 failed with WTIME:  %04d and WLONG: %01d."), wait.time, wait.isLong);
	Assert::IsTrue(wait.time==25,PSTR("CalculateWait"), exception2, iSendMessage);
}
void  TCS34725UnitTests::TestGetRGBA::Run(bool& successful, Exceptions& exceptions, ISendMessage*iSendMessage){
	Exceptions ex;
    2d32:	ce 01       	movw	r24, r28
    2d34:	01 96       	adiw	r24, 0x01	; 1
    2d36:	0e 94 75 07 	call	0xeea	; 0xeea <_ZN10ExceptionsD1Ev>
	Leds::GetInstance().GetBacklight()->TurnOn();
	RGBC rgbc=iGetRGBC->GetRGBC(successful, ex);
	Cleanup<char*> s = rgbc.ToString();
	iSendMessage->SendMessage(s.payload, strlen(s.payload));
	Assert::DoesntThrowException(ex,PSTR("GetRGBA"), iSendMessage);
}
    2d3a:	61 96       	adiw	r28, 0x11	; 17
    2d3c:	0f b6       	in	r0, 0x3f	; 63
    2d3e:	f8 94       	cli
    2d40:	de bf       	out	0x3e, r29	; 62
    2d42:	0f be       	out	0x3f, r0	; 63
    2d44:	cd bf       	out	0x3d, r28	; 61
    2d46:	df 91       	pop	r29
    2d48:	cf 91       	pop	r28
    2d4a:	1f 91       	pop	r17
    2d4c:	0f 91       	pop	r16
    2d4e:	ff 90       	pop	r15
    2d50:	ef 90       	pop	r14
    2d52:	df 90       	pop	r13
    2d54:	cf 90       	pop	r12
    2d56:	08 95       	ret

00002d58 <_ZN5Tests7DoTestsERbR10Exceptions>:
		};
	for(size_t i=0; i<TESTS_SIZES; i++) {
		tests[i]=stck[i];
	}
}
void Tests::DoTests(bool& successful, Exceptions& exceptions){
    2d58:	cf 92       	push	r12
    2d5a:	df 92       	push	r13
    2d5c:	ef 92       	push	r14
    2d5e:	ff 92       	push	r15
    2d60:	0f 93       	push	r16
    2d62:	1f 93       	push	r17
    2d64:	cf 93       	push	r28
    2d66:	df 93       	push	r29
    2d68:	8c 01       	movw	r16, r24
    2d6a:	6b 01       	movw	r12, r22
    2d6c:	7a 01       	movw	r14, r20
    2d6e:	c0 e0       	ldi	r28, 0x00	; 0
    2d70:	d0 e0       	ldi	r29, 0x00	; 0
	for(size_t i=0; i<TESTS_SIZES; i++)
	{
		Test* test = tests[i];
    2d72:	d8 01       	movw	r26, r16
    2d74:	12 96       	adiw	r26, 0x02	; 2
    2d76:	ed 91       	ld	r30, X+
    2d78:	fc 91       	ld	r31, X
    2d7a:	13 97       	sbiw	r26, 0x03	; 3
    2d7c:	ec 0f       	add	r30, r28
    2d7e:	fd 1f       	adc	r31, r29
    2d80:	80 81       	ld	r24, Z
    2d82:	91 81       	ldd	r25, Z+1	; 0x01
		test->Run(successful, exceptions, iSendMessage);
    2d84:	14 96       	adiw	r26, 0x04	; 4
    2d86:	2d 91       	ld	r18, X+
    2d88:	3c 91       	ld	r19, X
    2d8a:	15 97       	sbiw	r26, 0x05	; 5
    2d8c:	dc 01       	movw	r26, r24
    2d8e:	ed 91       	ld	r30, X+
    2d90:	fc 91       	ld	r31, X
    2d92:	01 90       	ld	r0, Z+
    2d94:	f0 81       	ld	r31, Z
    2d96:	e0 2d       	mov	r30, r0
    2d98:	a7 01       	movw	r20, r14
    2d9a:	b6 01       	movw	r22, r12
    2d9c:	09 95       	icall
    2d9e:	22 96       	adiw	r28, 0x02	; 2
	for(size_t i=0; i<TESTS_SIZES; i++) {
		tests[i]=stck[i];
	}
}
void Tests::DoTests(bool& successful, Exceptions& exceptions){
	for(size_t i=0; i<TESTS_SIZES; i++)
    2da0:	c8 30       	cpi	r28, 0x08	; 8
    2da2:	d1 05       	cpc	r29, r1
    2da4:	31 f7       	brne	.-52     	; 0x2d72 <_ZN5Tests7DoTestsERbR10Exceptions+0x1a>
	{
		Test* test = tests[i];
		test->Run(successful, exceptions, iSendMessage);
	}
}
    2da6:	df 91       	pop	r29
    2da8:	cf 91       	pop	r28
    2daa:	1f 91       	pop	r17
    2dac:	0f 91       	pop	r16
    2dae:	ff 90       	pop	r15
    2db0:	ef 90       	pop	r14
    2db2:	df 90       	pop	r13
    2db4:	cf 90       	pop	r12
    2db6:	08 95       	ret

00002db8 <_ZN5TestsC1EP12ISendMessageP8IGetRGBC>:
#include "PHelper.h"
#include "../IGetRGBC.h"
#include <avr/pgmspace.h>

#define TESTS_SIZES 4
Tests::Tests(ISendMessage* iSendMessage, IGetRGBC* iGetRGBC):iSendMessage(iSendMessage){
    2db8:	ef 92       	push	r14
    2dba:	ff 92       	push	r15
    2dbc:	0f 93       	push	r16
    2dbe:	1f 93       	push	r17
    2dc0:	cf 93       	push	r28
    2dc2:	df 93       	push	r29
    2dc4:	cd b7       	in	r28, 0x3d	; 61
    2dc6:	de b7       	in	r29, 0x3e	; 62
    2dc8:	28 97       	sbiw	r28, 0x08	; 8
    2dca:	0f b6       	in	r0, 0x3f	; 63
    2dcc:	f8 94       	cli
    2dce:	de bf       	out	0x3e, r29	; 62
    2dd0:	0f be       	out	0x3f, r0	; 63
    2dd2:	cd bf       	out	0x3d, r28	; 61
    2dd4:	8c 01       	movw	r16, r24
    2dd6:	7a 01       	movw	r14, r20
    2dd8:	8f ec       	ldi	r24, 0xCF	; 207
    2dda:	92 e0       	ldi	r25, 0x02	; 2
    2ddc:	f8 01       	movw	r30, r16
    2dde:	91 83       	std	Z+1, r25	; 0x01
    2de0:	80 83       	st	Z, r24
    2de2:	75 83       	std	Z+5, r23	; 0x05
    2de4:	64 83       	std	Z+4, r22	; 0x04
	
	tests =new Test*[TESTS_SIZES];
    2de6:	88 e0       	ldi	r24, 0x08	; 8
    2de8:	90 e0       	ldi	r25, 0x00	; 0
    2dea:	0e 94 81 08 	call	0x1102	; 0x1102 <_Znaj>
    2dee:	f8 01       	movw	r30, r16
    2df0:	93 83       	std	Z+3, r25	; 0x03
    2df2:	82 83       	std	Z+2, r24	; 0x02
	Test* stck[TESTS_SIZES]={
		new TCS34725UnitTests::TestGetATime(),
		new TCS34725UnitTests::TestCalculateWait(),
		new TCS34725UnitTests::TestGetAGain(),
		new TCS34725UnitTests::TestGetRGBA(iGetRGBC)
		};
    2df4:	82 e0       	ldi	r24, 0x02	; 2
    2df6:	90 e0       	ldi	r25, 0x00	; 0
    2df8:	0e 94 7e 08 	call	0x10fc	; 0x10fc <_Znwj>
{
	public:
	class TestGetATime: public Test
	{
		public:
		TestGetATime():Test(){}
    2dfc:	2f ea       	ldi	r18, 0xAF	; 175
    2dfe:	32 e0       	ldi	r19, 0x02	; 2
    2e00:	fc 01       	movw	r30, r24
    2e02:	31 83       	std	Z+1, r19	; 0x01
    2e04:	20 83       	st	Z, r18
    2e06:	9a 83       	std	Y+2, r25	; 0x02
    2e08:	89 83       	std	Y+1, r24	; 0x01
    2e0a:	82 e0       	ldi	r24, 0x02	; 2
    2e0c:	90 e0       	ldi	r25, 0x00	; 0
    2e0e:	0e 94 7e 08 	call	0x10fc	; 0x10fc <_Znwj>
			return Test::_GetName(PSTR("GetAGain"));
		}
};
class  TestCalculateWait:public Test{
	public:
	TestCalculateWait():Test(){}
    2e12:	2f eb       	ldi	r18, 0xBF	; 191
    2e14:	32 e0       	ldi	r19, 0x02	; 2
    2e16:	fc 01       	movw	r30, r24
    2e18:	31 83       	std	Z+1, r19	; 0x01
    2e1a:	20 83       	st	Z, r18
    2e1c:	9c 83       	std	Y+4, r25	; 0x04
    2e1e:	8b 83       	std	Y+3, r24	; 0x03
    2e20:	82 e0       	ldi	r24, 0x02	; 2
    2e22:	90 e0       	ldi	r25, 0x00	; 0
    2e24:	0e 94 7e 08 	call	0x10fc	; 0x10fc <_Znwj>
		return Test::_GetName(PSTR("GetATime"));
		}
	};
	class TestGetAGain:public Test{
		public:
		TestGetAGain():Test(){}
    2e28:	27 eb       	ldi	r18, 0xB7	; 183
    2e2a:	32 e0       	ldi	r19, 0x02	; 2
    2e2c:	fc 01       	movw	r30, r24
    2e2e:	31 83       	std	Z+1, r19	; 0x01
    2e30:	20 83       	st	Z, r18
    2e32:	9e 83       	std	Y+6, r25	; 0x06
    2e34:	8d 83       	std	Y+5, r24	; 0x05
    2e36:	84 e0       	ldi	r24, 0x04	; 4
    2e38:	90 e0       	ldi	r25, 0x00	; 0
    2e3a:	0e 94 7e 08 	call	0x10fc	; 0x10fc <_Znwj>
};
class  TestGetRGBA:public Test{
	private:
	IGetRGBC* iGetRGBC;
	public:
	TestGetRGBA(IGetRGBC* iGetRGBC): Test() , iGetRGBC(iGetRGBC) {}
    2e3e:	27 ec       	ldi	r18, 0xC7	; 199
    2e40:	32 e0       	ldi	r19, 0x02	; 2
    2e42:	fc 01       	movw	r30, r24
    2e44:	31 83       	std	Z+1, r19	; 0x01
    2e46:	20 83       	st	Z, r18
    2e48:	f3 82       	std	Z+3, r15	; 0x03
    2e4a:	e2 82       	std	Z+2, r14	; 0x02
    2e4c:	98 87       	std	Y+8, r25	; 0x08
    2e4e:	8f 83       	std	Y+7, r24	; 0x07
    2e50:	de 01       	movw	r26, r28
    2e52:	11 96       	adiw	r26, 0x01	; 1
    2e54:	80 e0       	ldi	r24, 0x00	; 0
    2e56:	90 e0       	ldi	r25, 0x00	; 0
	for(size_t i=0; i<TESTS_SIZES; i++) {
		tests[i]=stck[i];
    2e58:	2d 91       	ld	r18, X+
    2e5a:	3d 91       	ld	r19, X+
    2e5c:	f8 01       	movw	r30, r16
    2e5e:	42 81       	ldd	r20, Z+2	; 0x02
    2e60:	53 81       	ldd	r21, Z+3	; 0x03
    2e62:	fa 01       	movw	r30, r20
    2e64:	e8 0f       	add	r30, r24
    2e66:	f9 1f       	adc	r31, r25
    2e68:	31 83       	std	Z+1, r19	; 0x01
    2e6a:	20 83       	st	Z, r18
    2e6c:	02 96       	adiw	r24, 0x02	; 2
		new TCS34725UnitTests::TestGetATime(),
		new TCS34725UnitTests::TestCalculateWait(),
		new TCS34725UnitTests::TestGetAGain(),
		new TCS34725UnitTests::TestGetRGBA(iGetRGBC)
		};
	for(size_t i=0; i<TESTS_SIZES; i++) {
    2e6e:	88 30       	cpi	r24, 0x08	; 8
    2e70:	91 05       	cpc	r25, r1
    2e72:	91 f7       	brne	.-28     	; 0x2e58 <_ZN5TestsC1EP12ISendMessageP8IGetRGBC+0xa0>
		tests[i]=stck[i];
	}
}
    2e74:	28 96       	adiw	r28, 0x08	; 8
    2e76:	0f b6       	in	r0, 0x3f	; 63
    2e78:	f8 94       	cli
    2e7a:	de bf       	out	0x3e, r29	; 62
    2e7c:	0f be       	out	0x3f, r0	; 63
    2e7e:	cd bf       	out	0x3d, r28	; 61
    2e80:	df 91       	pop	r29
    2e82:	cf 91       	pop	r28
    2e84:	1f 91       	pop	r17
    2e86:	0f 91       	pop	r16
    2e88:	ff 90       	pop	r15
    2e8a:	ef 90       	pop	r14
    2e8c:	08 95       	ret

00002e8e <_ZN5Tests5SendPEPKc>:
			Send(test->GetName().payload);
			SendP(PSTR("\""));
		}
	SendP(PSTR("]}\n"));
}
void Tests::SendP(const char* str){
    2e8e:	9b 01       	movw	r18, r22
	PHelper::SendP(str, iSendMessage);
    2e90:	fc 01       	movw	r30, r24
    2e92:	64 81       	ldd	r22, Z+4	; 0x04
    2e94:	75 81       	ldd	r23, Z+5	; 0x05
    2e96:	c9 01       	movw	r24, r18
    2e98:	0e 94 68 02 	call	0x4d0	; 0x4d0 <_ZN7PHelper5SendPEPKcP12ISendMessage>
    2e9c:	08 95       	ret

00002e9e <_ZN5Tests4SendEPKc>:
}
void Tests::Send(const char* str){
	iSendMessage->SendMessage(str, strlen(str));
    2e9e:	dc 01       	movw	r26, r24
    2ea0:	14 96       	adiw	r26, 0x04	; 4
    2ea2:	8d 91       	ld	r24, X+
    2ea4:	9c 91       	ld	r25, X
    2ea6:	15 97       	sbiw	r26, 0x05	; 5
    2ea8:	fb 01       	movw	r30, r22
    2eaa:	01 90       	ld	r0, Z+
    2eac:	00 20       	and	r0, r0
    2eae:	e9 f7       	brne	.-6      	; 0x2eaa <_ZN5Tests4SendEPKc+0xc>
    2eb0:	31 97       	sbiw	r30, 0x01	; 1
    2eb2:	af 01       	movw	r20, r30
    2eb4:	46 1b       	sub	r20, r22
    2eb6:	57 0b       	sbc	r21, r23
    2eb8:	dc 01       	movw	r26, r24
    2eba:	ed 91       	ld	r30, X+
    2ebc:	fc 91       	ld	r31, X
    2ebe:	01 90       	ld	r0, Z+
    2ec0:	f0 81       	ld	r31, Z
    2ec2:	e0 2d       	mov	r30, r0
    2ec4:	09 95       	icall
    2ec6:	08 95       	ret

00002ec8 <_ZN5Tests12GetTestNamesEv>:
		Test* test = tests[i];
		test->Run(successful, exceptions, iSendMessage);
	}
}

void Tests::GetTestNames(){
    2ec8:	df 92       	push	r13
    2eca:	ef 92       	push	r14
    2ecc:	ff 92       	push	r15
    2ece:	0f 93       	push	r16
    2ed0:	1f 93       	push	r17
    2ed2:	cf 93       	push	r28
    2ed4:	df 93       	push	r29
    2ed6:	00 d0       	rcall	.+0      	; 0x2ed8 <_ZN5Tests12GetTestNamesEv+0x10>
    2ed8:	1f 92       	push	r1
    2eda:	cd b7       	in	r28, 0x3d	; 61
    2edc:	de b7       	in	r29, 0x3e	; 62
    2ede:	8c 01       	movw	r16, r24
	bool first= true;
	SendP(PSTR("{\"type\":\"unit_tests_names\",\"names\":["));
    2ee0:	6c e0       	ldi	r22, 0x0C	; 12
    2ee2:	73 e0       	ldi	r23, 0x03	; 3
    2ee4:	0e 94 47 17 	call	0x2e8e	; 0x2e8e <_ZN5Tests5SendPEPKc>
    2ee8:	e1 2c       	mov	r14, r1
    2eea:	f1 2c       	mov	r15, r1
		test->Run(successful, exceptions, iSendMessage);
	}
}

void Tests::GetTestNames(){
	bool first= true;
    2eec:	81 e0       	ldi	r24, 0x01	; 1
    2eee:	d1 2c       	mov	r13, r1
	SendP(PSTR("{\"type\":\"unit_tests_names\",\"names\":["));
		for(size_t i=0; i<TESTS_SIZES; i++)
		{
			if(first){
    2ef0:	88 23       	and	r24, r24
    2ef2:	31 f0       	breq	.+12     	; 0x2f00 <_ZN5Tests12GetTestNamesEv+0x38>
				first=false;
				SendP(PSTR("\""));
    2ef4:	6a e0       	ldi	r22, 0x0A	; 10
    2ef6:	73 e0       	ldi	r23, 0x03	; 3
    2ef8:	c8 01       	movw	r24, r16
    2efa:	0e 94 47 17 	call	0x2e8e	; 0x2e8e <_ZN5Tests5SendPEPKc>
    2efe:	05 c0       	rjmp	.+10     	; 0x2f0a <_ZN5Tests12GetTestNamesEv+0x42>
			}
			else{
				SendP(PSTR(",\""));
    2f00:	67 e0       	ldi	r22, 0x07	; 7
    2f02:	73 e0       	ldi	r23, 0x03	; 3
    2f04:	c8 01       	movw	r24, r16
    2f06:	0e 94 47 17 	call	0x2e8e	; 0x2e8e <_ZN5Tests5SendPEPKc>
			}
			Test* test = tests[i];
    2f0a:	d8 01       	movw	r26, r16
    2f0c:	12 96       	adiw	r26, 0x02	; 2
    2f0e:	ed 91       	ld	r30, X+
    2f10:	fc 91       	ld	r31, X
    2f12:	13 97       	sbiw	r26, 0x03	; 3
    2f14:	ee 0d       	add	r30, r14
    2f16:	ff 1d       	adc	r31, r15
    2f18:	60 81       	ld	r22, Z
    2f1a:	71 81       	ldd	r23, Z+1	; 0x01
			Send(test->GetName().payload);
    2f1c:	db 01       	movw	r26, r22
    2f1e:	ed 91       	ld	r30, X+
    2f20:	fc 91       	ld	r31, X
    2f22:	02 80       	ldd	r0, Z+2	; 0x02
    2f24:	f3 81       	ldd	r31, Z+3	; 0x03
    2f26:	e0 2d       	mov	r30, r0
    2f28:	ce 01       	movw	r24, r28
    2f2a:	01 96       	adiw	r24, 0x01	; 1
    2f2c:	09 95       	icall
    2f2e:	69 81       	ldd	r22, Y+1	; 0x01
    2f30:	7a 81       	ldd	r23, Y+2	; 0x02
    2f32:	c8 01       	movw	r24, r16
    2f34:	0e 94 4f 17 	call	0x2e9e	; 0x2e9e <_ZN5Tests4SendEPKc>

	// default destructor

	~Cleanup()
	{
		if(!dontDelete)
    2f38:	8b 81       	ldd	r24, Y+3	; 0x03
    2f3a:	81 11       	cpse	r24, r1
    2f3c:	06 c0       	rjmp	.+12     	; 0x2f4a <_ZN5Tests12GetTestNamesEv+0x82>
		if(payload!=NULL)
    2f3e:	89 81       	ldd	r24, Y+1	; 0x01
    2f40:	9a 81       	ldd	r25, Y+2	; 0x02
    2f42:	00 97       	sbiw	r24, 0x00	; 0
    2f44:	11 f0       	breq	.+4      	; 0x2f4a <_ZN5Tests12GetTestNamesEv+0x82>
		delete payload;
    2f46:	0e 94 84 08 	call	0x1108	; 0x1108 <_ZdlPv>
			SendP(PSTR("\""));
    2f4a:	65 e0       	ldi	r22, 0x05	; 5
    2f4c:	73 e0       	ldi	r23, 0x03	; 3
    2f4e:	c8 01       	movw	r24, r16
    2f50:	0e 94 47 17 	call	0x2e8e	; 0x2e8e <_ZN5Tests5SendPEPKc>
    2f54:	b2 e0       	ldi	r27, 0x02	; 2
    2f56:	eb 0e       	add	r14, r27
    2f58:	f1 1c       	adc	r15, r1
    2f5a:	8d 2d       	mov	r24, r13
}

void Tests::GetTestNames(){
	bool first= true;
	SendP(PSTR("{\"type\":\"unit_tests_names\",\"names\":["));
		for(size_t i=0; i<TESTS_SIZES; i++)
    2f5c:	98 e0       	ldi	r25, 0x08	; 8
    2f5e:	e9 16       	cp	r14, r25
    2f60:	f1 04       	cpc	r15, r1
    2f62:	31 f6       	brne	.-116    	; 0x2ef0 <_ZN5Tests12GetTestNamesEv+0x28>
			}
			Test* test = tests[i];
			Send(test->GetName().payload);
			SendP(PSTR("\""));
		}
	SendP(PSTR("]}\n"));
    2f64:	61 e0       	ldi	r22, 0x01	; 1
    2f66:	73 e0       	ldi	r23, 0x03	; 3
    2f68:	c8 01       	movw	r24, r16
    2f6a:	0e 94 47 17 	call	0x2e8e	; 0x2e8e <_ZN5Tests5SendPEPKc>
}
    2f6e:	0f 90       	pop	r0
    2f70:	0f 90       	pop	r0
    2f72:	0f 90       	pop	r0
    2f74:	df 91       	pop	r29
    2f76:	cf 91       	pop	r28
    2f78:	1f 91       	pop	r17
    2f7a:	0f 91       	pop	r16
    2f7c:	ff 90       	pop	r15
    2f7e:	ef 90       	pop	r14
    2f80:	df 90       	pop	r13
    2f82:	08 95       	ret

00002f84 <__mulsi3>:
    2f84:	db 01       	movw	r26, r22
    2f86:	8f 93       	push	r24
    2f88:	9f 93       	push	r25
    2f8a:	0e 94 09 18 	call	0x3012	; 0x3012 <__muluhisi3>
    2f8e:	bf 91       	pop	r27
    2f90:	af 91       	pop	r26
    2f92:	a2 9f       	mul	r26, r18
    2f94:	80 0d       	add	r24, r0
    2f96:	91 1d       	adc	r25, r1
    2f98:	a3 9f       	mul	r26, r19
    2f9a:	90 0d       	add	r25, r0
    2f9c:	b2 9f       	mul	r27, r18
    2f9e:	90 0d       	add	r25, r0
    2fa0:	11 24       	eor	r1, r1
    2fa2:	08 95       	ret

00002fa4 <__udivmodsi4>:
    2fa4:	a1 e2       	ldi	r26, 0x21	; 33
    2fa6:	1a 2e       	mov	r1, r26
    2fa8:	aa 1b       	sub	r26, r26
    2faa:	bb 1b       	sub	r27, r27
    2fac:	fd 01       	movw	r30, r26
    2fae:	0d c0       	rjmp	.+26     	; 0x2fca <__udivmodsi4_ep>

00002fb0 <__udivmodsi4_loop>:
    2fb0:	aa 1f       	adc	r26, r26
    2fb2:	bb 1f       	adc	r27, r27
    2fb4:	ee 1f       	adc	r30, r30
    2fb6:	ff 1f       	adc	r31, r31
    2fb8:	a2 17       	cp	r26, r18
    2fba:	b3 07       	cpc	r27, r19
    2fbc:	e4 07       	cpc	r30, r20
    2fbe:	f5 07       	cpc	r31, r21
    2fc0:	20 f0       	brcs	.+8      	; 0x2fca <__udivmodsi4_ep>
    2fc2:	a2 1b       	sub	r26, r18
    2fc4:	b3 0b       	sbc	r27, r19
    2fc6:	e4 0b       	sbc	r30, r20
    2fc8:	f5 0b       	sbc	r31, r21

00002fca <__udivmodsi4_ep>:
    2fca:	66 1f       	adc	r22, r22
    2fcc:	77 1f       	adc	r23, r23
    2fce:	88 1f       	adc	r24, r24
    2fd0:	99 1f       	adc	r25, r25
    2fd2:	1a 94       	dec	r1
    2fd4:	69 f7       	brne	.-38     	; 0x2fb0 <__udivmodsi4_loop>
    2fd6:	60 95       	com	r22
    2fd8:	70 95       	com	r23
    2fda:	80 95       	com	r24
    2fdc:	90 95       	com	r25
    2fde:	9b 01       	movw	r18, r22
    2fe0:	ac 01       	movw	r20, r24
    2fe2:	bd 01       	movw	r22, r26
    2fe4:	cf 01       	movw	r24, r30
    2fe6:	08 95       	ret

00002fe8 <__tablejump2__>:
    2fe8:	ee 0f       	add	r30, r30
    2fea:	ff 1f       	adc	r31, r31
    2fec:	05 90       	lpm	r0, Z+
    2fee:	f4 91       	lpm	r31, Z
    2ff0:	e0 2d       	mov	r30, r0
    2ff2:	09 94       	ijmp

00002ff4 <__umulhisi3>:
    2ff4:	a2 9f       	mul	r26, r18
    2ff6:	b0 01       	movw	r22, r0
    2ff8:	b3 9f       	mul	r27, r19
    2ffa:	c0 01       	movw	r24, r0
    2ffc:	a3 9f       	mul	r26, r19
    2ffe:	70 0d       	add	r23, r0
    3000:	81 1d       	adc	r24, r1
    3002:	11 24       	eor	r1, r1
    3004:	91 1d       	adc	r25, r1
    3006:	b2 9f       	mul	r27, r18
    3008:	70 0d       	add	r23, r0
    300a:	81 1d       	adc	r24, r1
    300c:	11 24       	eor	r1, r1
    300e:	91 1d       	adc	r25, r1
    3010:	08 95       	ret

00003012 <__muluhisi3>:
    3012:	0e 94 fa 17 	call	0x2ff4	; 0x2ff4 <__umulhisi3>
    3016:	a5 9f       	mul	r26, r21
    3018:	90 0d       	add	r25, r0
    301a:	b4 9f       	mul	r27, r20
    301c:	90 0d       	add	r25, r0
    301e:	a4 9f       	mul	r26, r20
    3020:	80 0d       	add	r24, r0
    3022:	91 1d       	adc	r25, r1
    3024:	11 24       	eor	r1, r1
    3026:	08 95       	ret

00003028 <malloc>:
    3028:	0f 93       	push	r16
    302a:	1f 93       	push	r17
    302c:	cf 93       	push	r28
    302e:	df 93       	push	r29
    3030:	82 30       	cpi	r24, 0x02	; 2
    3032:	91 05       	cpc	r25, r1
    3034:	10 f4       	brcc	.+4      	; 0x303a <malloc+0x12>
    3036:	82 e0       	ldi	r24, 0x02	; 2
    3038:	90 e0       	ldi	r25, 0x00	; 0
    303a:	e0 91 ff 03 	lds	r30, 0x03FF	; 0x8003ff <__flp>
    303e:	f0 91 00 04 	lds	r31, 0x0400	; 0x800400 <__flp+0x1>
    3042:	20 e0       	ldi	r18, 0x00	; 0
    3044:	30 e0       	ldi	r19, 0x00	; 0
    3046:	a0 e0       	ldi	r26, 0x00	; 0
    3048:	b0 e0       	ldi	r27, 0x00	; 0
    304a:	30 97       	sbiw	r30, 0x00	; 0
    304c:	19 f1       	breq	.+70     	; 0x3094 <malloc+0x6c>
    304e:	40 81       	ld	r20, Z
    3050:	51 81       	ldd	r21, Z+1	; 0x01
    3052:	02 81       	ldd	r16, Z+2	; 0x02
    3054:	13 81       	ldd	r17, Z+3	; 0x03
    3056:	48 17       	cp	r20, r24
    3058:	59 07       	cpc	r21, r25
    305a:	c8 f0       	brcs	.+50     	; 0x308e <malloc+0x66>
    305c:	84 17       	cp	r24, r20
    305e:	95 07       	cpc	r25, r21
    3060:	69 f4       	brne	.+26     	; 0x307c <malloc+0x54>
    3062:	10 97       	sbiw	r26, 0x00	; 0
    3064:	31 f0       	breq	.+12     	; 0x3072 <malloc+0x4a>
    3066:	12 96       	adiw	r26, 0x02	; 2
    3068:	0c 93       	st	X, r16
    306a:	12 97       	sbiw	r26, 0x02	; 2
    306c:	13 96       	adiw	r26, 0x03	; 3
    306e:	1c 93       	st	X, r17
    3070:	27 c0       	rjmp	.+78     	; 0x30c0 <malloc+0x98>
    3072:	00 93 ff 03 	sts	0x03FF, r16	; 0x8003ff <__flp>
    3076:	10 93 00 04 	sts	0x0400, r17	; 0x800400 <__flp+0x1>
    307a:	22 c0       	rjmp	.+68     	; 0x30c0 <malloc+0x98>
    307c:	21 15       	cp	r18, r1
    307e:	31 05       	cpc	r19, r1
    3080:	19 f0       	breq	.+6      	; 0x3088 <malloc+0x60>
    3082:	42 17       	cp	r20, r18
    3084:	53 07       	cpc	r21, r19
    3086:	18 f4       	brcc	.+6      	; 0x308e <malloc+0x66>
    3088:	9a 01       	movw	r18, r20
    308a:	bd 01       	movw	r22, r26
    308c:	ef 01       	movw	r28, r30
    308e:	df 01       	movw	r26, r30
    3090:	f8 01       	movw	r30, r16
    3092:	db cf       	rjmp	.-74     	; 0x304a <malloc+0x22>
    3094:	21 15       	cp	r18, r1
    3096:	31 05       	cpc	r19, r1
    3098:	f9 f0       	breq	.+62     	; 0x30d8 <malloc+0xb0>
    309a:	28 1b       	sub	r18, r24
    309c:	39 0b       	sbc	r19, r25
    309e:	24 30       	cpi	r18, 0x04	; 4
    30a0:	31 05       	cpc	r19, r1
    30a2:	80 f4       	brcc	.+32     	; 0x30c4 <malloc+0x9c>
    30a4:	8a 81       	ldd	r24, Y+2	; 0x02
    30a6:	9b 81       	ldd	r25, Y+3	; 0x03
    30a8:	61 15       	cp	r22, r1
    30aa:	71 05       	cpc	r23, r1
    30ac:	21 f0       	breq	.+8      	; 0x30b6 <malloc+0x8e>
    30ae:	fb 01       	movw	r30, r22
    30b0:	93 83       	std	Z+3, r25	; 0x03
    30b2:	82 83       	std	Z+2, r24	; 0x02
    30b4:	04 c0       	rjmp	.+8      	; 0x30be <malloc+0x96>
    30b6:	90 93 00 04 	sts	0x0400, r25	; 0x800400 <__flp+0x1>
    30ba:	80 93 ff 03 	sts	0x03FF, r24	; 0x8003ff <__flp>
    30be:	fe 01       	movw	r30, r28
    30c0:	32 96       	adiw	r30, 0x02	; 2
    30c2:	44 c0       	rjmp	.+136    	; 0x314c <malloc+0x124>
    30c4:	fe 01       	movw	r30, r28
    30c6:	e2 0f       	add	r30, r18
    30c8:	f3 1f       	adc	r31, r19
    30ca:	81 93       	st	Z+, r24
    30cc:	91 93       	st	Z+, r25
    30ce:	22 50       	subi	r18, 0x02	; 2
    30d0:	31 09       	sbc	r19, r1
    30d2:	39 83       	std	Y+1, r19	; 0x01
    30d4:	28 83       	st	Y, r18
    30d6:	3a c0       	rjmp	.+116    	; 0x314c <malloc+0x124>
    30d8:	20 91 fd 03 	lds	r18, 0x03FD	; 0x8003fd <__brkval>
    30dc:	30 91 fe 03 	lds	r19, 0x03FE	; 0x8003fe <__brkval+0x1>
    30e0:	23 2b       	or	r18, r19
    30e2:	41 f4       	brne	.+16     	; 0x30f4 <malloc+0xcc>
    30e4:	20 91 02 01 	lds	r18, 0x0102	; 0x800102 <__malloc_heap_start>
    30e8:	30 91 03 01 	lds	r19, 0x0103	; 0x800103 <__malloc_heap_start+0x1>
    30ec:	30 93 fe 03 	sts	0x03FE, r19	; 0x8003fe <__brkval+0x1>
    30f0:	20 93 fd 03 	sts	0x03FD, r18	; 0x8003fd <__brkval>
    30f4:	20 91 00 01 	lds	r18, 0x0100	; 0x800100 <__data_start>
    30f8:	30 91 01 01 	lds	r19, 0x0101	; 0x800101 <__data_start+0x1>
    30fc:	21 15       	cp	r18, r1
    30fe:	31 05       	cpc	r19, r1
    3100:	41 f4       	brne	.+16     	; 0x3112 <malloc+0xea>
    3102:	2d b7       	in	r18, 0x3d	; 61
    3104:	3e b7       	in	r19, 0x3e	; 62
    3106:	40 91 04 01 	lds	r20, 0x0104	; 0x800104 <__malloc_margin>
    310a:	50 91 05 01 	lds	r21, 0x0105	; 0x800105 <__malloc_margin+0x1>
    310e:	24 1b       	sub	r18, r20
    3110:	35 0b       	sbc	r19, r21
    3112:	e0 91 fd 03 	lds	r30, 0x03FD	; 0x8003fd <__brkval>
    3116:	f0 91 fe 03 	lds	r31, 0x03FE	; 0x8003fe <__brkval+0x1>
    311a:	e2 17       	cp	r30, r18
    311c:	f3 07       	cpc	r31, r19
    311e:	a0 f4       	brcc	.+40     	; 0x3148 <malloc+0x120>
    3120:	2e 1b       	sub	r18, r30
    3122:	3f 0b       	sbc	r19, r31
    3124:	28 17       	cp	r18, r24
    3126:	39 07       	cpc	r19, r25
    3128:	78 f0       	brcs	.+30     	; 0x3148 <malloc+0x120>
    312a:	ac 01       	movw	r20, r24
    312c:	4e 5f       	subi	r20, 0xFE	; 254
    312e:	5f 4f       	sbci	r21, 0xFF	; 255
    3130:	24 17       	cp	r18, r20
    3132:	35 07       	cpc	r19, r21
    3134:	48 f0       	brcs	.+18     	; 0x3148 <malloc+0x120>
    3136:	4e 0f       	add	r20, r30
    3138:	5f 1f       	adc	r21, r31
    313a:	50 93 fe 03 	sts	0x03FE, r21	; 0x8003fe <__brkval+0x1>
    313e:	40 93 fd 03 	sts	0x03FD, r20	; 0x8003fd <__brkval>
    3142:	81 93       	st	Z+, r24
    3144:	91 93       	st	Z+, r25
    3146:	02 c0       	rjmp	.+4      	; 0x314c <malloc+0x124>
    3148:	e0 e0       	ldi	r30, 0x00	; 0
    314a:	f0 e0       	ldi	r31, 0x00	; 0
    314c:	cf 01       	movw	r24, r30
    314e:	df 91       	pop	r29
    3150:	cf 91       	pop	r28
    3152:	1f 91       	pop	r17
    3154:	0f 91       	pop	r16
    3156:	08 95       	ret

00003158 <free>:
    3158:	cf 93       	push	r28
    315a:	df 93       	push	r29
    315c:	00 97       	sbiw	r24, 0x00	; 0
    315e:	09 f4       	brne	.+2      	; 0x3162 <free+0xa>
    3160:	81 c0       	rjmp	.+258    	; 0x3264 <free+0x10c>
    3162:	fc 01       	movw	r30, r24
    3164:	32 97       	sbiw	r30, 0x02	; 2
    3166:	13 82       	std	Z+3, r1	; 0x03
    3168:	12 82       	std	Z+2, r1	; 0x02
    316a:	a0 91 ff 03 	lds	r26, 0x03FF	; 0x8003ff <__flp>
    316e:	b0 91 00 04 	lds	r27, 0x0400	; 0x800400 <__flp+0x1>
    3172:	10 97       	sbiw	r26, 0x00	; 0
    3174:	81 f4       	brne	.+32     	; 0x3196 <free+0x3e>
    3176:	20 81       	ld	r18, Z
    3178:	31 81       	ldd	r19, Z+1	; 0x01
    317a:	82 0f       	add	r24, r18
    317c:	93 1f       	adc	r25, r19
    317e:	20 91 fd 03 	lds	r18, 0x03FD	; 0x8003fd <__brkval>
    3182:	30 91 fe 03 	lds	r19, 0x03FE	; 0x8003fe <__brkval+0x1>
    3186:	28 17       	cp	r18, r24
    3188:	39 07       	cpc	r19, r25
    318a:	51 f5       	brne	.+84     	; 0x31e0 <free+0x88>
    318c:	f0 93 fe 03 	sts	0x03FE, r31	; 0x8003fe <__brkval+0x1>
    3190:	e0 93 fd 03 	sts	0x03FD, r30	; 0x8003fd <__brkval>
    3194:	67 c0       	rjmp	.+206    	; 0x3264 <free+0x10c>
    3196:	ed 01       	movw	r28, r26
    3198:	20 e0       	ldi	r18, 0x00	; 0
    319a:	30 e0       	ldi	r19, 0x00	; 0
    319c:	ce 17       	cp	r28, r30
    319e:	df 07       	cpc	r29, r31
    31a0:	40 f4       	brcc	.+16     	; 0x31b2 <free+0x5a>
    31a2:	4a 81       	ldd	r20, Y+2	; 0x02
    31a4:	5b 81       	ldd	r21, Y+3	; 0x03
    31a6:	9e 01       	movw	r18, r28
    31a8:	41 15       	cp	r20, r1
    31aa:	51 05       	cpc	r21, r1
    31ac:	f1 f0       	breq	.+60     	; 0x31ea <free+0x92>
    31ae:	ea 01       	movw	r28, r20
    31b0:	f5 cf       	rjmp	.-22     	; 0x319c <free+0x44>
    31b2:	d3 83       	std	Z+3, r29	; 0x03
    31b4:	c2 83       	std	Z+2, r28	; 0x02
    31b6:	40 81       	ld	r20, Z
    31b8:	51 81       	ldd	r21, Z+1	; 0x01
    31ba:	84 0f       	add	r24, r20
    31bc:	95 1f       	adc	r25, r21
    31be:	c8 17       	cp	r28, r24
    31c0:	d9 07       	cpc	r29, r25
    31c2:	59 f4       	brne	.+22     	; 0x31da <free+0x82>
    31c4:	88 81       	ld	r24, Y
    31c6:	99 81       	ldd	r25, Y+1	; 0x01
    31c8:	84 0f       	add	r24, r20
    31ca:	95 1f       	adc	r25, r21
    31cc:	02 96       	adiw	r24, 0x02	; 2
    31ce:	91 83       	std	Z+1, r25	; 0x01
    31d0:	80 83       	st	Z, r24
    31d2:	8a 81       	ldd	r24, Y+2	; 0x02
    31d4:	9b 81       	ldd	r25, Y+3	; 0x03
    31d6:	93 83       	std	Z+3, r25	; 0x03
    31d8:	82 83       	std	Z+2, r24	; 0x02
    31da:	21 15       	cp	r18, r1
    31dc:	31 05       	cpc	r19, r1
    31de:	29 f4       	brne	.+10     	; 0x31ea <free+0x92>
    31e0:	f0 93 00 04 	sts	0x0400, r31	; 0x800400 <__flp+0x1>
    31e4:	e0 93 ff 03 	sts	0x03FF, r30	; 0x8003ff <__flp>
    31e8:	3d c0       	rjmp	.+122    	; 0x3264 <free+0x10c>
    31ea:	e9 01       	movw	r28, r18
    31ec:	fb 83       	std	Y+3, r31	; 0x03
    31ee:	ea 83       	std	Y+2, r30	; 0x02
    31f0:	49 91       	ld	r20, Y+
    31f2:	59 91       	ld	r21, Y+
    31f4:	c4 0f       	add	r28, r20
    31f6:	d5 1f       	adc	r29, r21
    31f8:	ec 17       	cp	r30, r28
    31fa:	fd 07       	cpc	r31, r29
    31fc:	61 f4       	brne	.+24     	; 0x3216 <free+0xbe>
    31fe:	80 81       	ld	r24, Z
    3200:	91 81       	ldd	r25, Z+1	; 0x01
    3202:	84 0f       	add	r24, r20
    3204:	95 1f       	adc	r25, r21
    3206:	02 96       	adiw	r24, 0x02	; 2
    3208:	e9 01       	movw	r28, r18
    320a:	99 83       	std	Y+1, r25	; 0x01
    320c:	88 83       	st	Y, r24
    320e:	82 81       	ldd	r24, Z+2	; 0x02
    3210:	93 81       	ldd	r25, Z+3	; 0x03
    3212:	9b 83       	std	Y+3, r25	; 0x03
    3214:	8a 83       	std	Y+2, r24	; 0x02
    3216:	e0 e0       	ldi	r30, 0x00	; 0
    3218:	f0 e0       	ldi	r31, 0x00	; 0
    321a:	12 96       	adiw	r26, 0x02	; 2
    321c:	8d 91       	ld	r24, X+
    321e:	9c 91       	ld	r25, X
    3220:	13 97       	sbiw	r26, 0x03	; 3
    3222:	00 97       	sbiw	r24, 0x00	; 0
    3224:	19 f0       	breq	.+6      	; 0x322c <free+0xd4>
    3226:	fd 01       	movw	r30, r26
    3228:	dc 01       	movw	r26, r24
    322a:	f7 cf       	rjmp	.-18     	; 0x321a <free+0xc2>
    322c:	8d 91       	ld	r24, X+
    322e:	9c 91       	ld	r25, X
    3230:	11 97       	sbiw	r26, 0x01	; 1
    3232:	9d 01       	movw	r18, r26
    3234:	2e 5f       	subi	r18, 0xFE	; 254
    3236:	3f 4f       	sbci	r19, 0xFF	; 255
    3238:	82 0f       	add	r24, r18
    323a:	93 1f       	adc	r25, r19
    323c:	20 91 fd 03 	lds	r18, 0x03FD	; 0x8003fd <__brkval>
    3240:	30 91 fe 03 	lds	r19, 0x03FE	; 0x8003fe <__brkval+0x1>
    3244:	28 17       	cp	r18, r24
    3246:	39 07       	cpc	r19, r25
    3248:	69 f4       	brne	.+26     	; 0x3264 <free+0x10c>
    324a:	30 97       	sbiw	r30, 0x00	; 0
    324c:	29 f4       	brne	.+10     	; 0x3258 <free+0x100>
    324e:	10 92 00 04 	sts	0x0400, r1	; 0x800400 <__flp+0x1>
    3252:	10 92 ff 03 	sts	0x03FF, r1	; 0x8003ff <__flp>
    3256:	02 c0       	rjmp	.+4      	; 0x325c <free+0x104>
    3258:	13 82       	std	Z+3, r1	; 0x03
    325a:	12 82       	std	Z+2, r1	; 0x02
    325c:	b0 93 fe 03 	sts	0x03FE, r27	; 0x8003fe <__brkval+0x1>
    3260:	a0 93 fd 03 	sts	0x03FD, r26	; 0x8003fd <__brkval>
    3264:	df 91       	pop	r29
    3266:	cf 91       	pop	r28
    3268:	08 95       	ret

0000326a <strcmp_P>:
    326a:	fb 01       	movw	r30, r22
    326c:	dc 01       	movw	r26, r24
    326e:	8d 91       	ld	r24, X+
    3270:	05 90       	lpm	r0, Z+
    3272:	80 19       	sub	r24, r0
    3274:	01 10       	cpse	r0, r1
    3276:	d9 f3       	breq	.-10     	; 0x326e <strcmp_P+0x4>
    3278:	99 0b       	sbc	r25, r25
    327a:	08 95       	ret

0000327c <strcpy_P>:
    327c:	fb 01       	movw	r30, r22
    327e:	dc 01       	movw	r26, r24
    3280:	05 90       	lpm	r0, Z+
    3282:	0d 92       	st	X+, r0
    3284:	00 20       	and	r0, r0
    3286:	e1 f7       	brne	.-8      	; 0x3280 <strcpy_P+0x4>
    3288:	08 95       	ret

0000328a <__strlen_P>:
    328a:	fc 01       	movw	r30, r24
    328c:	05 90       	lpm	r0, Z+
    328e:	00 20       	and	r0, r0
    3290:	e9 f7       	brne	.-6      	; 0x328c <__strlen_P+0x2>
    3292:	80 95       	com	r24
    3294:	90 95       	com	r25
    3296:	8e 0f       	add	r24, r30
    3298:	9f 1f       	adc	r25, r31
    329a:	08 95       	ret

0000329c <memcpy>:
    329c:	fb 01       	movw	r30, r22
    329e:	dc 01       	movw	r26, r24
    32a0:	02 c0       	rjmp	.+4      	; 0x32a6 <memcpy+0xa>
    32a2:	01 90       	ld	r0, Z+
    32a4:	0d 92       	st	X+, r0
    32a6:	41 50       	subi	r20, 0x01	; 1
    32a8:	50 40       	sbci	r21, 0x00	; 0
    32aa:	d8 f7       	brcc	.-10     	; 0x32a2 <memcpy+0x6>
    32ac:	08 95       	ret

000032ae <strcmp>:
    32ae:	fb 01       	movw	r30, r22
    32b0:	dc 01       	movw	r26, r24
    32b2:	8d 91       	ld	r24, X+
    32b4:	01 90       	ld	r0, Z+
    32b6:	80 19       	sub	r24, r0
    32b8:	01 10       	cpse	r0, r1
    32ba:	d9 f3       	breq	.-10     	; 0x32b2 <strcmp+0x4>
    32bc:	99 0b       	sbc	r25, r25
    32be:	08 95       	ret

000032c0 <snprintf_P>:
    32c0:	ae e0       	ldi	r26, 0x0E	; 14
    32c2:	b0 e0       	ldi	r27, 0x00	; 0
    32c4:	e6 e6       	ldi	r30, 0x66	; 102
    32c6:	f9 e1       	ldi	r31, 0x19	; 25
    32c8:	0c 94 2f 1c 	jmp	0x385e	; 0x385e <__prologue_saves__+0x1c>
    32cc:	0d 89       	ldd	r16, Y+21	; 0x15
    32ce:	1e 89       	ldd	r17, Y+22	; 0x16
    32d0:	8f 89       	ldd	r24, Y+23	; 0x17
    32d2:	98 8d       	ldd	r25, Y+24	; 0x18
    32d4:	2e e0       	ldi	r18, 0x0E	; 14
    32d6:	2c 83       	std	Y+4, r18	; 0x04
    32d8:	1a 83       	std	Y+2, r17	; 0x02
    32da:	09 83       	std	Y+1, r16	; 0x01
    32dc:	97 ff       	sbrs	r25, 7
    32de:	02 c0       	rjmp	.+4      	; 0x32e4 <snprintf_P+0x24>
    32e0:	80 e0       	ldi	r24, 0x00	; 0
    32e2:	90 e8       	ldi	r25, 0x80	; 128
    32e4:	01 97       	sbiw	r24, 0x01	; 1
    32e6:	9e 83       	std	Y+6, r25	; 0x06
    32e8:	8d 83       	std	Y+5, r24	; 0x05
    32ea:	ae 01       	movw	r20, r28
    32ec:	45 5e       	subi	r20, 0xE5	; 229
    32ee:	5f 4f       	sbci	r21, 0xFF	; 255
    32f0:	69 8d       	ldd	r22, Y+25	; 0x19
    32f2:	7a 8d       	ldd	r23, Y+26	; 0x1a
    32f4:	ce 01       	movw	r24, r28
    32f6:	01 96       	adiw	r24, 0x01	; 1
    32f8:	0e 94 90 19 	call	0x3320	; 0x3320 <vfprintf>
    32fc:	4d 81       	ldd	r20, Y+5	; 0x05
    32fe:	5e 81       	ldd	r21, Y+6	; 0x06
    3300:	57 fd       	sbrc	r21, 7
    3302:	0a c0       	rjmp	.+20     	; 0x3318 <snprintf_P+0x58>
    3304:	2f 81       	ldd	r18, Y+7	; 0x07
    3306:	38 85       	ldd	r19, Y+8	; 0x08
    3308:	42 17       	cp	r20, r18
    330a:	53 07       	cpc	r21, r19
    330c:	0c f4       	brge	.+2      	; 0x3310 <snprintf_P+0x50>
    330e:	9a 01       	movw	r18, r20
    3310:	f8 01       	movw	r30, r16
    3312:	e2 0f       	add	r30, r18
    3314:	f3 1f       	adc	r31, r19
    3316:	10 82       	st	Z, r1
    3318:	2e 96       	adiw	r28, 0x0e	; 14
    331a:	e4 e0       	ldi	r30, 0x04	; 4
    331c:	0c 94 4b 1c 	jmp	0x3896	; 0x3896 <__epilogue_restores__+0x1c>

00003320 <vfprintf>:
    3320:	ab e0       	ldi	r26, 0x0B	; 11
    3322:	b0 e0       	ldi	r27, 0x00	; 0
    3324:	e6 e9       	ldi	r30, 0x96	; 150
    3326:	f9 e1       	ldi	r31, 0x19	; 25
    3328:	0c 94 21 1c 	jmp	0x3842	; 0x3842 <__prologue_saves__>
    332c:	6c 01       	movw	r12, r24
    332e:	7b 01       	movw	r14, r22
    3330:	8a 01       	movw	r16, r20
    3332:	fc 01       	movw	r30, r24
    3334:	17 82       	std	Z+7, r1	; 0x07
    3336:	16 82       	std	Z+6, r1	; 0x06
    3338:	83 81       	ldd	r24, Z+3	; 0x03
    333a:	81 ff       	sbrs	r24, 1
    333c:	cc c1       	rjmp	.+920    	; 0x36d6 <vfprintf+0x3b6>
    333e:	ce 01       	movw	r24, r28
    3340:	01 96       	adiw	r24, 0x01	; 1
    3342:	3c 01       	movw	r6, r24
    3344:	f6 01       	movw	r30, r12
    3346:	93 81       	ldd	r25, Z+3	; 0x03
    3348:	f7 01       	movw	r30, r14
    334a:	93 fd       	sbrc	r25, 3
    334c:	85 91       	lpm	r24, Z+
    334e:	93 ff       	sbrs	r25, 3
    3350:	81 91       	ld	r24, Z+
    3352:	7f 01       	movw	r14, r30
    3354:	88 23       	and	r24, r24
    3356:	09 f4       	brne	.+2      	; 0x335a <vfprintf+0x3a>
    3358:	ba c1       	rjmp	.+884    	; 0x36ce <vfprintf+0x3ae>
    335a:	85 32       	cpi	r24, 0x25	; 37
    335c:	39 f4       	brne	.+14     	; 0x336c <vfprintf+0x4c>
    335e:	93 fd       	sbrc	r25, 3
    3360:	85 91       	lpm	r24, Z+
    3362:	93 ff       	sbrs	r25, 3
    3364:	81 91       	ld	r24, Z+
    3366:	7f 01       	movw	r14, r30
    3368:	85 32       	cpi	r24, 0x25	; 37
    336a:	29 f4       	brne	.+10     	; 0x3376 <vfprintf+0x56>
    336c:	b6 01       	movw	r22, r12
    336e:	90 e0       	ldi	r25, 0x00	; 0
    3370:	0e 94 87 1b 	call	0x370e	; 0x370e <fputc>
    3374:	e7 cf       	rjmp	.-50     	; 0x3344 <vfprintf+0x24>
    3376:	91 2c       	mov	r9, r1
    3378:	21 2c       	mov	r2, r1
    337a:	31 2c       	mov	r3, r1
    337c:	ff e1       	ldi	r31, 0x1F	; 31
    337e:	f3 15       	cp	r31, r3
    3380:	d8 f0       	brcs	.+54     	; 0x33b8 <vfprintf+0x98>
    3382:	8b 32       	cpi	r24, 0x2B	; 43
    3384:	79 f0       	breq	.+30     	; 0x33a4 <vfprintf+0x84>
    3386:	38 f4       	brcc	.+14     	; 0x3396 <vfprintf+0x76>
    3388:	80 32       	cpi	r24, 0x20	; 32
    338a:	79 f0       	breq	.+30     	; 0x33aa <vfprintf+0x8a>
    338c:	83 32       	cpi	r24, 0x23	; 35
    338e:	a1 f4       	brne	.+40     	; 0x33b8 <vfprintf+0x98>
    3390:	23 2d       	mov	r18, r3
    3392:	20 61       	ori	r18, 0x10	; 16
    3394:	1d c0       	rjmp	.+58     	; 0x33d0 <vfprintf+0xb0>
    3396:	8d 32       	cpi	r24, 0x2D	; 45
    3398:	61 f0       	breq	.+24     	; 0x33b2 <vfprintf+0x92>
    339a:	80 33       	cpi	r24, 0x30	; 48
    339c:	69 f4       	brne	.+26     	; 0x33b8 <vfprintf+0x98>
    339e:	23 2d       	mov	r18, r3
    33a0:	21 60       	ori	r18, 0x01	; 1
    33a2:	16 c0       	rjmp	.+44     	; 0x33d0 <vfprintf+0xb0>
    33a4:	83 2d       	mov	r24, r3
    33a6:	82 60       	ori	r24, 0x02	; 2
    33a8:	38 2e       	mov	r3, r24
    33aa:	e3 2d       	mov	r30, r3
    33ac:	e4 60       	ori	r30, 0x04	; 4
    33ae:	3e 2e       	mov	r3, r30
    33b0:	2a c0       	rjmp	.+84     	; 0x3406 <vfprintf+0xe6>
    33b2:	f3 2d       	mov	r31, r3
    33b4:	f8 60       	ori	r31, 0x08	; 8
    33b6:	1d c0       	rjmp	.+58     	; 0x33f2 <vfprintf+0xd2>
    33b8:	37 fc       	sbrc	r3, 7
    33ba:	2d c0       	rjmp	.+90     	; 0x3416 <vfprintf+0xf6>
    33bc:	20 ed       	ldi	r18, 0xD0	; 208
    33be:	28 0f       	add	r18, r24
    33c0:	2a 30       	cpi	r18, 0x0A	; 10
    33c2:	40 f0       	brcs	.+16     	; 0x33d4 <vfprintf+0xb4>
    33c4:	8e 32       	cpi	r24, 0x2E	; 46
    33c6:	b9 f4       	brne	.+46     	; 0x33f6 <vfprintf+0xd6>
    33c8:	36 fc       	sbrc	r3, 6
    33ca:	81 c1       	rjmp	.+770    	; 0x36ce <vfprintf+0x3ae>
    33cc:	23 2d       	mov	r18, r3
    33ce:	20 64       	ori	r18, 0x40	; 64
    33d0:	32 2e       	mov	r3, r18
    33d2:	19 c0       	rjmp	.+50     	; 0x3406 <vfprintf+0xe6>
    33d4:	36 fe       	sbrs	r3, 6
    33d6:	06 c0       	rjmp	.+12     	; 0x33e4 <vfprintf+0xc4>
    33d8:	8a e0       	ldi	r24, 0x0A	; 10
    33da:	98 9e       	mul	r9, r24
    33dc:	20 0d       	add	r18, r0
    33de:	11 24       	eor	r1, r1
    33e0:	92 2e       	mov	r9, r18
    33e2:	11 c0       	rjmp	.+34     	; 0x3406 <vfprintf+0xe6>
    33e4:	ea e0       	ldi	r30, 0x0A	; 10
    33e6:	2e 9e       	mul	r2, r30
    33e8:	20 0d       	add	r18, r0
    33ea:	11 24       	eor	r1, r1
    33ec:	22 2e       	mov	r2, r18
    33ee:	f3 2d       	mov	r31, r3
    33f0:	f0 62       	ori	r31, 0x20	; 32
    33f2:	3f 2e       	mov	r3, r31
    33f4:	08 c0       	rjmp	.+16     	; 0x3406 <vfprintf+0xe6>
    33f6:	8c 36       	cpi	r24, 0x6C	; 108
    33f8:	21 f4       	brne	.+8      	; 0x3402 <vfprintf+0xe2>
    33fa:	83 2d       	mov	r24, r3
    33fc:	80 68       	ori	r24, 0x80	; 128
    33fe:	38 2e       	mov	r3, r24
    3400:	02 c0       	rjmp	.+4      	; 0x3406 <vfprintf+0xe6>
    3402:	88 36       	cpi	r24, 0x68	; 104
    3404:	41 f4       	brne	.+16     	; 0x3416 <vfprintf+0xf6>
    3406:	f7 01       	movw	r30, r14
    3408:	93 fd       	sbrc	r25, 3
    340a:	85 91       	lpm	r24, Z+
    340c:	93 ff       	sbrs	r25, 3
    340e:	81 91       	ld	r24, Z+
    3410:	7f 01       	movw	r14, r30
    3412:	81 11       	cpse	r24, r1
    3414:	b3 cf       	rjmp	.-154    	; 0x337c <vfprintf+0x5c>
    3416:	98 2f       	mov	r25, r24
    3418:	9f 7d       	andi	r25, 0xDF	; 223
    341a:	95 54       	subi	r25, 0x45	; 69
    341c:	93 30       	cpi	r25, 0x03	; 3
    341e:	28 f4       	brcc	.+10     	; 0x342a <vfprintf+0x10a>
    3420:	0c 5f       	subi	r16, 0xFC	; 252
    3422:	1f 4f       	sbci	r17, 0xFF	; 255
    3424:	9f e3       	ldi	r25, 0x3F	; 63
    3426:	99 83       	std	Y+1, r25	; 0x01
    3428:	0d c0       	rjmp	.+26     	; 0x3444 <vfprintf+0x124>
    342a:	83 36       	cpi	r24, 0x63	; 99
    342c:	31 f0       	breq	.+12     	; 0x343a <vfprintf+0x11a>
    342e:	83 37       	cpi	r24, 0x73	; 115
    3430:	71 f0       	breq	.+28     	; 0x344e <vfprintf+0x12e>
    3432:	83 35       	cpi	r24, 0x53	; 83
    3434:	09 f0       	breq	.+2      	; 0x3438 <vfprintf+0x118>
    3436:	59 c0       	rjmp	.+178    	; 0x34ea <vfprintf+0x1ca>
    3438:	21 c0       	rjmp	.+66     	; 0x347c <vfprintf+0x15c>
    343a:	f8 01       	movw	r30, r16
    343c:	80 81       	ld	r24, Z
    343e:	89 83       	std	Y+1, r24	; 0x01
    3440:	0e 5f       	subi	r16, 0xFE	; 254
    3442:	1f 4f       	sbci	r17, 0xFF	; 255
    3444:	88 24       	eor	r8, r8
    3446:	83 94       	inc	r8
    3448:	91 2c       	mov	r9, r1
    344a:	53 01       	movw	r10, r6
    344c:	13 c0       	rjmp	.+38     	; 0x3474 <vfprintf+0x154>
    344e:	28 01       	movw	r4, r16
    3450:	f2 e0       	ldi	r31, 0x02	; 2
    3452:	4f 0e       	add	r4, r31
    3454:	51 1c       	adc	r5, r1
    3456:	f8 01       	movw	r30, r16
    3458:	a0 80       	ld	r10, Z
    345a:	b1 80       	ldd	r11, Z+1	; 0x01
    345c:	36 fe       	sbrs	r3, 6
    345e:	03 c0       	rjmp	.+6      	; 0x3466 <vfprintf+0x146>
    3460:	69 2d       	mov	r22, r9
    3462:	70 e0       	ldi	r23, 0x00	; 0
    3464:	02 c0       	rjmp	.+4      	; 0x346a <vfprintf+0x14a>
    3466:	6f ef       	ldi	r22, 0xFF	; 255
    3468:	7f ef       	ldi	r23, 0xFF	; 255
    346a:	c5 01       	movw	r24, r10
    346c:	0e 94 7c 1b 	call	0x36f8	; 0x36f8 <strnlen>
    3470:	4c 01       	movw	r8, r24
    3472:	82 01       	movw	r16, r4
    3474:	f3 2d       	mov	r31, r3
    3476:	ff 77       	andi	r31, 0x7F	; 127
    3478:	3f 2e       	mov	r3, r31
    347a:	16 c0       	rjmp	.+44     	; 0x34a8 <vfprintf+0x188>
    347c:	28 01       	movw	r4, r16
    347e:	22 e0       	ldi	r18, 0x02	; 2
    3480:	42 0e       	add	r4, r18
    3482:	51 1c       	adc	r5, r1
    3484:	f8 01       	movw	r30, r16
    3486:	a0 80       	ld	r10, Z
    3488:	b1 80       	ldd	r11, Z+1	; 0x01
    348a:	36 fe       	sbrs	r3, 6
    348c:	03 c0       	rjmp	.+6      	; 0x3494 <vfprintf+0x174>
    348e:	69 2d       	mov	r22, r9
    3490:	70 e0       	ldi	r23, 0x00	; 0
    3492:	02 c0       	rjmp	.+4      	; 0x3498 <vfprintf+0x178>
    3494:	6f ef       	ldi	r22, 0xFF	; 255
    3496:	7f ef       	ldi	r23, 0xFF	; 255
    3498:	c5 01       	movw	r24, r10
    349a:	0e 94 71 1b 	call	0x36e2	; 0x36e2 <strnlen_P>
    349e:	4c 01       	movw	r8, r24
    34a0:	f3 2d       	mov	r31, r3
    34a2:	f0 68       	ori	r31, 0x80	; 128
    34a4:	3f 2e       	mov	r3, r31
    34a6:	82 01       	movw	r16, r4
    34a8:	33 fc       	sbrc	r3, 3
    34aa:	1b c0       	rjmp	.+54     	; 0x34e2 <vfprintf+0x1c2>
    34ac:	82 2d       	mov	r24, r2
    34ae:	90 e0       	ldi	r25, 0x00	; 0
    34b0:	88 16       	cp	r8, r24
    34b2:	99 06       	cpc	r9, r25
    34b4:	b0 f4       	brcc	.+44     	; 0x34e2 <vfprintf+0x1c2>
    34b6:	b6 01       	movw	r22, r12
    34b8:	80 e2       	ldi	r24, 0x20	; 32
    34ba:	90 e0       	ldi	r25, 0x00	; 0
    34bc:	0e 94 87 1b 	call	0x370e	; 0x370e <fputc>
    34c0:	2a 94       	dec	r2
    34c2:	f4 cf       	rjmp	.-24     	; 0x34ac <vfprintf+0x18c>
    34c4:	f5 01       	movw	r30, r10
    34c6:	37 fc       	sbrc	r3, 7
    34c8:	85 91       	lpm	r24, Z+
    34ca:	37 fe       	sbrs	r3, 7
    34cc:	81 91       	ld	r24, Z+
    34ce:	5f 01       	movw	r10, r30
    34d0:	b6 01       	movw	r22, r12
    34d2:	90 e0       	ldi	r25, 0x00	; 0
    34d4:	0e 94 87 1b 	call	0x370e	; 0x370e <fputc>
    34d8:	21 10       	cpse	r2, r1
    34da:	2a 94       	dec	r2
    34dc:	21 e0       	ldi	r18, 0x01	; 1
    34de:	82 1a       	sub	r8, r18
    34e0:	91 08       	sbc	r9, r1
    34e2:	81 14       	cp	r8, r1
    34e4:	91 04       	cpc	r9, r1
    34e6:	71 f7       	brne	.-36     	; 0x34c4 <vfprintf+0x1a4>
    34e8:	e8 c0       	rjmp	.+464    	; 0x36ba <vfprintf+0x39a>
    34ea:	84 36       	cpi	r24, 0x64	; 100
    34ec:	11 f0       	breq	.+4      	; 0x34f2 <vfprintf+0x1d2>
    34ee:	89 36       	cpi	r24, 0x69	; 105
    34f0:	41 f5       	brne	.+80     	; 0x3542 <vfprintf+0x222>
    34f2:	f8 01       	movw	r30, r16
    34f4:	37 fe       	sbrs	r3, 7
    34f6:	07 c0       	rjmp	.+14     	; 0x3506 <vfprintf+0x1e6>
    34f8:	60 81       	ld	r22, Z
    34fa:	71 81       	ldd	r23, Z+1	; 0x01
    34fc:	82 81       	ldd	r24, Z+2	; 0x02
    34fe:	93 81       	ldd	r25, Z+3	; 0x03
    3500:	0c 5f       	subi	r16, 0xFC	; 252
    3502:	1f 4f       	sbci	r17, 0xFF	; 255
    3504:	08 c0       	rjmp	.+16     	; 0x3516 <vfprintf+0x1f6>
    3506:	60 81       	ld	r22, Z
    3508:	71 81       	ldd	r23, Z+1	; 0x01
    350a:	07 2e       	mov	r0, r23
    350c:	00 0c       	add	r0, r0
    350e:	88 0b       	sbc	r24, r24
    3510:	99 0b       	sbc	r25, r25
    3512:	0e 5f       	subi	r16, 0xFE	; 254
    3514:	1f 4f       	sbci	r17, 0xFF	; 255
    3516:	f3 2d       	mov	r31, r3
    3518:	ff 76       	andi	r31, 0x6F	; 111
    351a:	3f 2e       	mov	r3, r31
    351c:	97 ff       	sbrs	r25, 7
    351e:	09 c0       	rjmp	.+18     	; 0x3532 <vfprintf+0x212>
    3520:	90 95       	com	r25
    3522:	80 95       	com	r24
    3524:	70 95       	com	r23
    3526:	61 95       	neg	r22
    3528:	7f 4f       	sbci	r23, 0xFF	; 255
    352a:	8f 4f       	sbci	r24, 0xFF	; 255
    352c:	9f 4f       	sbci	r25, 0xFF	; 255
    352e:	f0 68       	ori	r31, 0x80	; 128
    3530:	3f 2e       	mov	r3, r31
    3532:	2a e0       	ldi	r18, 0x0A	; 10
    3534:	30 e0       	ldi	r19, 0x00	; 0
    3536:	a3 01       	movw	r20, r6
    3538:	0e 94 c3 1b 	call	0x3786	; 0x3786 <__ultoa_invert>
    353c:	88 2e       	mov	r8, r24
    353e:	86 18       	sub	r8, r6
    3540:	45 c0       	rjmp	.+138    	; 0x35cc <vfprintf+0x2ac>
    3542:	85 37       	cpi	r24, 0x75	; 117
    3544:	31 f4       	brne	.+12     	; 0x3552 <vfprintf+0x232>
    3546:	23 2d       	mov	r18, r3
    3548:	2f 7e       	andi	r18, 0xEF	; 239
    354a:	b2 2e       	mov	r11, r18
    354c:	2a e0       	ldi	r18, 0x0A	; 10
    354e:	30 e0       	ldi	r19, 0x00	; 0
    3550:	25 c0       	rjmp	.+74     	; 0x359c <vfprintf+0x27c>
    3552:	93 2d       	mov	r25, r3
    3554:	99 7f       	andi	r25, 0xF9	; 249
    3556:	b9 2e       	mov	r11, r25
    3558:	8f 36       	cpi	r24, 0x6F	; 111
    355a:	c1 f0       	breq	.+48     	; 0x358c <vfprintf+0x26c>
    355c:	18 f4       	brcc	.+6      	; 0x3564 <vfprintf+0x244>
    355e:	88 35       	cpi	r24, 0x58	; 88
    3560:	79 f0       	breq	.+30     	; 0x3580 <vfprintf+0x260>
    3562:	b5 c0       	rjmp	.+362    	; 0x36ce <vfprintf+0x3ae>
    3564:	80 37       	cpi	r24, 0x70	; 112
    3566:	19 f0       	breq	.+6      	; 0x356e <vfprintf+0x24e>
    3568:	88 37       	cpi	r24, 0x78	; 120
    356a:	21 f0       	breq	.+8      	; 0x3574 <vfprintf+0x254>
    356c:	b0 c0       	rjmp	.+352    	; 0x36ce <vfprintf+0x3ae>
    356e:	e9 2f       	mov	r30, r25
    3570:	e0 61       	ori	r30, 0x10	; 16
    3572:	be 2e       	mov	r11, r30
    3574:	b4 fe       	sbrs	r11, 4
    3576:	0d c0       	rjmp	.+26     	; 0x3592 <vfprintf+0x272>
    3578:	fb 2d       	mov	r31, r11
    357a:	f4 60       	ori	r31, 0x04	; 4
    357c:	bf 2e       	mov	r11, r31
    357e:	09 c0       	rjmp	.+18     	; 0x3592 <vfprintf+0x272>
    3580:	34 fe       	sbrs	r3, 4
    3582:	0a c0       	rjmp	.+20     	; 0x3598 <vfprintf+0x278>
    3584:	29 2f       	mov	r18, r25
    3586:	26 60       	ori	r18, 0x06	; 6
    3588:	b2 2e       	mov	r11, r18
    358a:	06 c0       	rjmp	.+12     	; 0x3598 <vfprintf+0x278>
    358c:	28 e0       	ldi	r18, 0x08	; 8
    358e:	30 e0       	ldi	r19, 0x00	; 0
    3590:	05 c0       	rjmp	.+10     	; 0x359c <vfprintf+0x27c>
    3592:	20 e1       	ldi	r18, 0x10	; 16
    3594:	30 e0       	ldi	r19, 0x00	; 0
    3596:	02 c0       	rjmp	.+4      	; 0x359c <vfprintf+0x27c>
    3598:	20 e1       	ldi	r18, 0x10	; 16
    359a:	32 e0       	ldi	r19, 0x02	; 2
    359c:	f8 01       	movw	r30, r16
    359e:	b7 fe       	sbrs	r11, 7
    35a0:	07 c0       	rjmp	.+14     	; 0x35b0 <vfprintf+0x290>
    35a2:	60 81       	ld	r22, Z
    35a4:	71 81       	ldd	r23, Z+1	; 0x01
    35a6:	82 81       	ldd	r24, Z+2	; 0x02
    35a8:	93 81       	ldd	r25, Z+3	; 0x03
    35aa:	0c 5f       	subi	r16, 0xFC	; 252
    35ac:	1f 4f       	sbci	r17, 0xFF	; 255
    35ae:	06 c0       	rjmp	.+12     	; 0x35bc <vfprintf+0x29c>
    35b0:	60 81       	ld	r22, Z
    35b2:	71 81       	ldd	r23, Z+1	; 0x01
    35b4:	80 e0       	ldi	r24, 0x00	; 0
    35b6:	90 e0       	ldi	r25, 0x00	; 0
    35b8:	0e 5f       	subi	r16, 0xFE	; 254
    35ba:	1f 4f       	sbci	r17, 0xFF	; 255
    35bc:	a3 01       	movw	r20, r6
    35be:	0e 94 c3 1b 	call	0x3786	; 0x3786 <__ultoa_invert>
    35c2:	88 2e       	mov	r8, r24
    35c4:	86 18       	sub	r8, r6
    35c6:	fb 2d       	mov	r31, r11
    35c8:	ff 77       	andi	r31, 0x7F	; 127
    35ca:	3f 2e       	mov	r3, r31
    35cc:	36 fe       	sbrs	r3, 6
    35ce:	0d c0       	rjmp	.+26     	; 0x35ea <vfprintf+0x2ca>
    35d0:	23 2d       	mov	r18, r3
    35d2:	2e 7f       	andi	r18, 0xFE	; 254
    35d4:	a2 2e       	mov	r10, r18
    35d6:	89 14       	cp	r8, r9
    35d8:	58 f4       	brcc	.+22     	; 0x35f0 <vfprintf+0x2d0>
    35da:	34 fe       	sbrs	r3, 4
    35dc:	0b c0       	rjmp	.+22     	; 0x35f4 <vfprintf+0x2d4>
    35de:	32 fc       	sbrc	r3, 2
    35e0:	09 c0       	rjmp	.+18     	; 0x35f4 <vfprintf+0x2d4>
    35e2:	83 2d       	mov	r24, r3
    35e4:	8e 7e       	andi	r24, 0xEE	; 238
    35e6:	a8 2e       	mov	r10, r24
    35e8:	05 c0       	rjmp	.+10     	; 0x35f4 <vfprintf+0x2d4>
    35ea:	b8 2c       	mov	r11, r8
    35ec:	a3 2c       	mov	r10, r3
    35ee:	03 c0       	rjmp	.+6      	; 0x35f6 <vfprintf+0x2d6>
    35f0:	b8 2c       	mov	r11, r8
    35f2:	01 c0       	rjmp	.+2      	; 0x35f6 <vfprintf+0x2d6>
    35f4:	b9 2c       	mov	r11, r9
    35f6:	a4 fe       	sbrs	r10, 4
    35f8:	0f c0       	rjmp	.+30     	; 0x3618 <vfprintf+0x2f8>
    35fa:	fe 01       	movw	r30, r28
    35fc:	e8 0d       	add	r30, r8
    35fe:	f1 1d       	adc	r31, r1
    3600:	80 81       	ld	r24, Z
    3602:	80 33       	cpi	r24, 0x30	; 48
    3604:	21 f4       	brne	.+8      	; 0x360e <vfprintf+0x2ee>
    3606:	9a 2d       	mov	r25, r10
    3608:	99 7e       	andi	r25, 0xE9	; 233
    360a:	a9 2e       	mov	r10, r25
    360c:	09 c0       	rjmp	.+18     	; 0x3620 <vfprintf+0x300>
    360e:	a2 fe       	sbrs	r10, 2
    3610:	06 c0       	rjmp	.+12     	; 0x361e <vfprintf+0x2fe>
    3612:	b3 94       	inc	r11
    3614:	b3 94       	inc	r11
    3616:	04 c0       	rjmp	.+8      	; 0x3620 <vfprintf+0x300>
    3618:	8a 2d       	mov	r24, r10
    361a:	86 78       	andi	r24, 0x86	; 134
    361c:	09 f0       	breq	.+2      	; 0x3620 <vfprintf+0x300>
    361e:	b3 94       	inc	r11
    3620:	a3 fc       	sbrc	r10, 3
    3622:	11 c0       	rjmp	.+34     	; 0x3646 <vfprintf+0x326>
    3624:	a0 fe       	sbrs	r10, 0
    3626:	06 c0       	rjmp	.+12     	; 0x3634 <vfprintf+0x314>
    3628:	b2 14       	cp	r11, r2
    362a:	88 f4       	brcc	.+34     	; 0x364e <vfprintf+0x32e>
    362c:	28 0c       	add	r2, r8
    362e:	92 2c       	mov	r9, r2
    3630:	9b 18       	sub	r9, r11
    3632:	0e c0       	rjmp	.+28     	; 0x3650 <vfprintf+0x330>
    3634:	b2 14       	cp	r11, r2
    3636:	60 f4       	brcc	.+24     	; 0x3650 <vfprintf+0x330>
    3638:	b6 01       	movw	r22, r12
    363a:	80 e2       	ldi	r24, 0x20	; 32
    363c:	90 e0       	ldi	r25, 0x00	; 0
    363e:	0e 94 87 1b 	call	0x370e	; 0x370e <fputc>
    3642:	b3 94       	inc	r11
    3644:	f7 cf       	rjmp	.-18     	; 0x3634 <vfprintf+0x314>
    3646:	b2 14       	cp	r11, r2
    3648:	18 f4       	brcc	.+6      	; 0x3650 <vfprintf+0x330>
    364a:	2b 18       	sub	r2, r11
    364c:	02 c0       	rjmp	.+4      	; 0x3652 <vfprintf+0x332>
    364e:	98 2c       	mov	r9, r8
    3650:	21 2c       	mov	r2, r1
    3652:	a4 fe       	sbrs	r10, 4
    3654:	10 c0       	rjmp	.+32     	; 0x3676 <vfprintf+0x356>
    3656:	b6 01       	movw	r22, r12
    3658:	80 e3       	ldi	r24, 0x30	; 48
    365a:	90 e0       	ldi	r25, 0x00	; 0
    365c:	0e 94 87 1b 	call	0x370e	; 0x370e <fputc>
    3660:	a2 fe       	sbrs	r10, 2
    3662:	17 c0       	rjmp	.+46     	; 0x3692 <vfprintf+0x372>
    3664:	a1 fc       	sbrc	r10, 1
    3666:	03 c0       	rjmp	.+6      	; 0x366e <vfprintf+0x34e>
    3668:	88 e7       	ldi	r24, 0x78	; 120
    366a:	90 e0       	ldi	r25, 0x00	; 0
    366c:	02 c0       	rjmp	.+4      	; 0x3672 <vfprintf+0x352>
    366e:	88 e5       	ldi	r24, 0x58	; 88
    3670:	90 e0       	ldi	r25, 0x00	; 0
    3672:	b6 01       	movw	r22, r12
    3674:	0c c0       	rjmp	.+24     	; 0x368e <vfprintf+0x36e>
    3676:	8a 2d       	mov	r24, r10
    3678:	86 78       	andi	r24, 0x86	; 134
    367a:	59 f0       	breq	.+22     	; 0x3692 <vfprintf+0x372>
    367c:	a1 fe       	sbrs	r10, 1
    367e:	02 c0       	rjmp	.+4      	; 0x3684 <vfprintf+0x364>
    3680:	8b e2       	ldi	r24, 0x2B	; 43
    3682:	01 c0       	rjmp	.+2      	; 0x3686 <vfprintf+0x366>
    3684:	80 e2       	ldi	r24, 0x20	; 32
    3686:	a7 fc       	sbrc	r10, 7
    3688:	8d e2       	ldi	r24, 0x2D	; 45
    368a:	b6 01       	movw	r22, r12
    368c:	90 e0       	ldi	r25, 0x00	; 0
    368e:	0e 94 87 1b 	call	0x370e	; 0x370e <fputc>
    3692:	89 14       	cp	r8, r9
    3694:	38 f4       	brcc	.+14     	; 0x36a4 <vfprintf+0x384>
    3696:	b6 01       	movw	r22, r12
    3698:	80 e3       	ldi	r24, 0x30	; 48
    369a:	90 e0       	ldi	r25, 0x00	; 0
    369c:	0e 94 87 1b 	call	0x370e	; 0x370e <fputc>
    36a0:	9a 94       	dec	r9
    36a2:	f7 cf       	rjmp	.-18     	; 0x3692 <vfprintf+0x372>
    36a4:	8a 94       	dec	r8
    36a6:	f3 01       	movw	r30, r6
    36a8:	e8 0d       	add	r30, r8
    36aa:	f1 1d       	adc	r31, r1
    36ac:	80 81       	ld	r24, Z
    36ae:	b6 01       	movw	r22, r12
    36b0:	90 e0       	ldi	r25, 0x00	; 0
    36b2:	0e 94 87 1b 	call	0x370e	; 0x370e <fputc>
    36b6:	81 10       	cpse	r8, r1
    36b8:	f5 cf       	rjmp	.-22     	; 0x36a4 <vfprintf+0x384>
    36ba:	22 20       	and	r2, r2
    36bc:	09 f4       	brne	.+2      	; 0x36c0 <vfprintf+0x3a0>
    36be:	42 ce       	rjmp	.-892    	; 0x3344 <vfprintf+0x24>
    36c0:	b6 01       	movw	r22, r12
    36c2:	80 e2       	ldi	r24, 0x20	; 32
    36c4:	90 e0       	ldi	r25, 0x00	; 0
    36c6:	0e 94 87 1b 	call	0x370e	; 0x370e <fputc>
    36ca:	2a 94       	dec	r2
    36cc:	f6 cf       	rjmp	.-20     	; 0x36ba <vfprintf+0x39a>
    36ce:	f6 01       	movw	r30, r12
    36d0:	86 81       	ldd	r24, Z+6	; 0x06
    36d2:	97 81       	ldd	r25, Z+7	; 0x07
    36d4:	02 c0       	rjmp	.+4      	; 0x36da <vfprintf+0x3ba>
    36d6:	8f ef       	ldi	r24, 0xFF	; 255
    36d8:	9f ef       	ldi	r25, 0xFF	; 255
    36da:	2b 96       	adiw	r28, 0x0b	; 11
    36dc:	e2 e1       	ldi	r30, 0x12	; 18
    36de:	0c 94 3d 1c 	jmp	0x387a	; 0x387a <__epilogue_restores__>

000036e2 <strnlen_P>:
    36e2:	fc 01       	movw	r30, r24
    36e4:	05 90       	lpm	r0, Z+
    36e6:	61 50       	subi	r22, 0x01	; 1
    36e8:	70 40       	sbci	r23, 0x00	; 0
    36ea:	01 10       	cpse	r0, r1
    36ec:	d8 f7       	brcc	.-10     	; 0x36e4 <strnlen_P+0x2>
    36ee:	80 95       	com	r24
    36f0:	90 95       	com	r25
    36f2:	8e 0f       	add	r24, r30
    36f4:	9f 1f       	adc	r25, r31
    36f6:	08 95       	ret

000036f8 <strnlen>:
    36f8:	fc 01       	movw	r30, r24
    36fa:	61 50       	subi	r22, 0x01	; 1
    36fc:	70 40       	sbci	r23, 0x00	; 0
    36fe:	01 90       	ld	r0, Z+
    3700:	01 10       	cpse	r0, r1
    3702:	d8 f7       	brcc	.-10     	; 0x36fa <strnlen+0x2>
    3704:	80 95       	com	r24
    3706:	90 95       	com	r25
    3708:	8e 0f       	add	r24, r30
    370a:	9f 1f       	adc	r25, r31
    370c:	08 95       	ret

0000370e <fputc>:
    370e:	0f 93       	push	r16
    3710:	1f 93       	push	r17
    3712:	cf 93       	push	r28
    3714:	df 93       	push	r29
    3716:	fb 01       	movw	r30, r22
    3718:	23 81       	ldd	r18, Z+3	; 0x03
    371a:	21 fd       	sbrc	r18, 1
    371c:	03 c0       	rjmp	.+6      	; 0x3724 <fputc+0x16>
    371e:	8f ef       	ldi	r24, 0xFF	; 255
    3720:	9f ef       	ldi	r25, 0xFF	; 255
    3722:	2c c0       	rjmp	.+88     	; 0x377c <fputc+0x6e>
    3724:	22 ff       	sbrs	r18, 2
    3726:	16 c0       	rjmp	.+44     	; 0x3754 <fputc+0x46>
    3728:	46 81       	ldd	r20, Z+6	; 0x06
    372a:	57 81       	ldd	r21, Z+7	; 0x07
    372c:	24 81       	ldd	r18, Z+4	; 0x04
    372e:	35 81       	ldd	r19, Z+5	; 0x05
    3730:	42 17       	cp	r20, r18
    3732:	53 07       	cpc	r21, r19
    3734:	44 f4       	brge	.+16     	; 0x3746 <fputc+0x38>
    3736:	a0 81       	ld	r26, Z
    3738:	b1 81       	ldd	r27, Z+1	; 0x01
    373a:	9d 01       	movw	r18, r26
    373c:	2f 5f       	subi	r18, 0xFF	; 255
    373e:	3f 4f       	sbci	r19, 0xFF	; 255
    3740:	31 83       	std	Z+1, r19	; 0x01
    3742:	20 83       	st	Z, r18
    3744:	8c 93       	st	X, r24
    3746:	26 81       	ldd	r18, Z+6	; 0x06
    3748:	37 81       	ldd	r19, Z+7	; 0x07
    374a:	2f 5f       	subi	r18, 0xFF	; 255
    374c:	3f 4f       	sbci	r19, 0xFF	; 255
    374e:	37 83       	std	Z+7, r19	; 0x07
    3750:	26 83       	std	Z+6, r18	; 0x06
    3752:	14 c0       	rjmp	.+40     	; 0x377c <fputc+0x6e>
    3754:	8b 01       	movw	r16, r22
    3756:	ec 01       	movw	r28, r24
    3758:	fb 01       	movw	r30, r22
    375a:	00 84       	ldd	r0, Z+8	; 0x08
    375c:	f1 85       	ldd	r31, Z+9	; 0x09
    375e:	e0 2d       	mov	r30, r0
    3760:	09 95       	icall
    3762:	89 2b       	or	r24, r25
    3764:	e1 f6       	brne	.-72     	; 0x371e <fputc+0x10>
    3766:	d8 01       	movw	r26, r16
    3768:	16 96       	adiw	r26, 0x06	; 6
    376a:	8d 91       	ld	r24, X+
    376c:	9c 91       	ld	r25, X
    376e:	17 97       	sbiw	r26, 0x07	; 7
    3770:	01 96       	adiw	r24, 0x01	; 1
    3772:	17 96       	adiw	r26, 0x07	; 7
    3774:	9c 93       	st	X, r25
    3776:	8e 93       	st	-X, r24
    3778:	16 97       	sbiw	r26, 0x06	; 6
    377a:	ce 01       	movw	r24, r28
    377c:	df 91       	pop	r29
    377e:	cf 91       	pop	r28
    3780:	1f 91       	pop	r17
    3782:	0f 91       	pop	r16
    3784:	08 95       	ret

00003786 <__ultoa_invert>:
    3786:	fa 01       	movw	r30, r20
    3788:	aa 27       	eor	r26, r26
    378a:	28 30       	cpi	r18, 0x08	; 8
    378c:	51 f1       	breq	.+84     	; 0x37e2 <__ultoa_invert+0x5c>
    378e:	20 31       	cpi	r18, 0x10	; 16
    3790:	81 f1       	breq	.+96     	; 0x37f2 <__ultoa_invert+0x6c>
    3792:	e8 94       	clt
    3794:	6f 93       	push	r22
    3796:	6e 7f       	andi	r22, 0xFE	; 254
    3798:	6e 5f       	subi	r22, 0xFE	; 254
    379a:	7f 4f       	sbci	r23, 0xFF	; 255
    379c:	8f 4f       	sbci	r24, 0xFF	; 255
    379e:	9f 4f       	sbci	r25, 0xFF	; 255
    37a0:	af 4f       	sbci	r26, 0xFF	; 255
    37a2:	b1 e0       	ldi	r27, 0x01	; 1
    37a4:	3e d0       	rcall	.+124    	; 0x3822 <__ultoa_invert+0x9c>
    37a6:	b4 e0       	ldi	r27, 0x04	; 4
    37a8:	3c d0       	rcall	.+120    	; 0x3822 <__ultoa_invert+0x9c>
    37aa:	67 0f       	add	r22, r23
    37ac:	78 1f       	adc	r23, r24
    37ae:	89 1f       	adc	r24, r25
    37b0:	9a 1f       	adc	r25, r26
    37b2:	a1 1d       	adc	r26, r1
    37b4:	68 0f       	add	r22, r24
    37b6:	79 1f       	adc	r23, r25
    37b8:	8a 1f       	adc	r24, r26
    37ba:	91 1d       	adc	r25, r1
    37bc:	a1 1d       	adc	r26, r1
    37be:	6a 0f       	add	r22, r26
    37c0:	71 1d       	adc	r23, r1
    37c2:	81 1d       	adc	r24, r1
    37c4:	91 1d       	adc	r25, r1
    37c6:	a1 1d       	adc	r26, r1
    37c8:	20 d0       	rcall	.+64     	; 0x380a <__ultoa_invert+0x84>
    37ca:	09 f4       	brne	.+2      	; 0x37ce <__ultoa_invert+0x48>
    37cc:	68 94       	set
    37ce:	3f 91       	pop	r19
    37d0:	2a e0       	ldi	r18, 0x0A	; 10
    37d2:	26 9f       	mul	r18, r22
    37d4:	11 24       	eor	r1, r1
    37d6:	30 19       	sub	r19, r0
    37d8:	30 5d       	subi	r19, 0xD0	; 208
    37da:	31 93       	st	Z+, r19
    37dc:	de f6       	brtc	.-74     	; 0x3794 <__ultoa_invert+0xe>
    37de:	cf 01       	movw	r24, r30
    37e0:	08 95       	ret
    37e2:	46 2f       	mov	r20, r22
    37e4:	47 70       	andi	r20, 0x07	; 7
    37e6:	40 5d       	subi	r20, 0xD0	; 208
    37e8:	41 93       	st	Z+, r20
    37ea:	b3 e0       	ldi	r27, 0x03	; 3
    37ec:	0f d0       	rcall	.+30     	; 0x380c <__ultoa_invert+0x86>
    37ee:	c9 f7       	brne	.-14     	; 0x37e2 <__ultoa_invert+0x5c>
    37f0:	f6 cf       	rjmp	.-20     	; 0x37de <__ultoa_invert+0x58>
    37f2:	46 2f       	mov	r20, r22
    37f4:	4f 70       	andi	r20, 0x0F	; 15
    37f6:	40 5d       	subi	r20, 0xD0	; 208
    37f8:	4a 33       	cpi	r20, 0x3A	; 58
    37fa:	18 f0       	brcs	.+6      	; 0x3802 <__ultoa_invert+0x7c>
    37fc:	49 5d       	subi	r20, 0xD9	; 217
    37fe:	31 fd       	sbrc	r19, 1
    3800:	40 52       	subi	r20, 0x20	; 32
    3802:	41 93       	st	Z+, r20
    3804:	02 d0       	rcall	.+4      	; 0x380a <__ultoa_invert+0x84>
    3806:	a9 f7       	brne	.-22     	; 0x37f2 <__ultoa_invert+0x6c>
    3808:	ea cf       	rjmp	.-44     	; 0x37de <__ultoa_invert+0x58>
    380a:	b4 e0       	ldi	r27, 0x04	; 4
    380c:	a6 95       	lsr	r26
    380e:	97 95       	ror	r25
    3810:	87 95       	ror	r24
    3812:	77 95       	ror	r23
    3814:	67 95       	ror	r22
    3816:	ba 95       	dec	r27
    3818:	c9 f7       	brne	.-14     	; 0x380c <__ultoa_invert+0x86>
    381a:	00 97       	sbiw	r24, 0x00	; 0
    381c:	61 05       	cpc	r22, r1
    381e:	71 05       	cpc	r23, r1
    3820:	08 95       	ret
    3822:	9b 01       	movw	r18, r22
    3824:	ac 01       	movw	r20, r24
    3826:	0a 2e       	mov	r0, r26
    3828:	06 94       	lsr	r0
    382a:	57 95       	ror	r21
    382c:	47 95       	ror	r20
    382e:	37 95       	ror	r19
    3830:	27 95       	ror	r18
    3832:	ba 95       	dec	r27
    3834:	c9 f7       	brne	.-14     	; 0x3828 <__ultoa_invert+0xa2>
    3836:	62 0f       	add	r22, r18
    3838:	73 1f       	adc	r23, r19
    383a:	84 1f       	adc	r24, r20
    383c:	95 1f       	adc	r25, r21
    383e:	a0 1d       	adc	r26, r0
    3840:	08 95       	ret

00003842 <__prologue_saves__>:
    3842:	2f 92       	push	r2
    3844:	3f 92       	push	r3
    3846:	4f 92       	push	r4
    3848:	5f 92       	push	r5
    384a:	6f 92       	push	r6
    384c:	7f 92       	push	r7
    384e:	8f 92       	push	r8
    3850:	9f 92       	push	r9
    3852:	af 92       	push	r10
    3854:	bf 92       	push	r11
    3856:	cf 92       	push	r12
    3858:	df 92       	push	r13
    385a:	ef 92       	push	r14
    385c:	ff 92       	push	r15
    385e:	0f 93       	push	r16
    3860:	1f 93       	push	r17
    3862:	cf 93       	push	r28
    3864:	df 93       	push	r29
    3866:	cd b7       	in	r28, 0x3d	; 61
    3868:	de b7       	in	r29, 0x3e	; 62
    386a:	ca 1b       	sub	r28, r26
    386c:	db 0b       	sbc	r29, r27
    386e:	0f b6       	in	r0, 0x3f	; 63
    3870:	f8 94       	cli
    3872:	de bf       	out	0x3e, r29	; 62
    3874:	0f be       	out	0x3f, r0	; 63
    3876:	cd bf       	out	0x3d, r28	; 61
    3878:	09 94       	ijmp

0000387a <__epilogue_restores__>:
    387a:	2a 88       	ldd	r2, Y+18	; 0x12
    387c:	39 88       	ldd	r3, Y+17	; 0x11
    387e:	48 88       	ldd	r4, Y+16	; 0x10
    3880:	5f 84       	ldd	r5, Y+15	; 0x0f
    3882:	6e 84       	ldd	r6, Y+14	; 0x0e
    3884:	7d 84       	ldd	r7, Y+13	; 0x0d
    3886:	8c 84       	ldd	r8, Y+12	; 0x0c
    3888:	9b 84       	ldd	r9, Y+11	; 0x0b
    388a:	aa 84       	ldd	r10, Y+10	; 0x0a
    388c:	b9 84       	ldd	r11, Y+9	; 0x09
    388e:	c8 84       	ldd	r12, Y+8	; 0x08
    3890:	df 80       	ldd	r13, Y+7	; 0x07
    3892:	ee 80       	ldd	r14, Y+6	; 0x06
    3894:	fd 80       	ldd	r15, Y+5	; 0x05
    3896:	0c 81       	ldd	r16, Y+4	; 0x04
    3898:	1b 81       	ldd	r17, Y+3	; 0x03
    389a:	aa 81       	ldd	r26, Y+2	; 0x02
    389c:	b9 81       	ldd	r27, Y+1	; 0x01
    389e:	ce 0f       	add	r28, r30
    38a0:	d1 1d       	adc	r29, r1
    38a2:	0f b6       	in	r0, 0x3f	; 63
    38a4:	f8 94       	cli
    38a6:	de bf       	out	0x3e, r29	; 62
    38a8:	0f be       	out	0x3f, r0	; 63
    38aa:	cd bf       	out	0x3d, r28	; 61
    38ac:	ed 01       	movw	r28, r26
    38ae:	08 95       	ret

000038b0 <__do_global_dtors>:
    38b0:	11 e0       	ldi	r17, 0x01	; 1
    38b2:	cd e9       	ldi	r28, 0x9D	; 157
    38b4:	d1 e0       	ldi	r29, 0x01	; 1
    38b6:	04 c0       	rjmp	.+8      	; 0x38c0 <__do_global_dtors+0x10>
    38b8:	fe 01       	movw	r30, r28
    38ba:	0e 94 f4 17 	call	0x2fe8	; 0x2fe8 <__tablejump2__>
    38be:	21 96       	adiw	r28, 0x01	; 1
    38c0:	ce 39       	cpi	r28, 0x9E	; 158
    38c2:	d1 07       	cpc	r29, r17
    38c4:	c9 f7       	brne	.-14     	; 0x38b8 <__do_global_dtors+0x8>
    38c6:	f8 94       	cli

000038c8 <__stop_program>:
    38c8:	ff cf       	rjmp	.-2      	; 0x38c8 <__stop_program>
